(lp0
S'au'
p1
aS'friend au'
p2
aS'alternate universe canon divergence'
p3
aS'alternate universe'
p4
aS'kate paul'
p5
aS'friend au'
p6
aS'ot3 friend au'
p7
aS'friend au'
p8
aS'friend au one person asked'
p9
aS'love simon sequel au one asked'
p10
aS'alternate universe collegeuniversity'
p11
aS'alternate universe collegeuniversity'
p12
aS'alternate universe domestic'
p13
aS'love simon sequel meet friend au one asked'
p14
aS'alternate universe'
p15
aS'alternate universe'
p16
aS'alternate universe high school'
p17
aS'au joeys bisexual'
p18
aS'wait thats au'
p19
aS'alternate universe canon divergence'
p20
aS'alternate universe canon divergence'
p21
aS'alternate universe canon divergence'
p22
aS'alternate universe canon divergence'
p23
aS'friend au'
p24
aS'alternate universe muggle'
p25
aS'marauder era'
p26
aS'alternate universe modern setting'
p27
aS'alternate universe daemon'
p28
aS'alternate universe'
p29
aS'alternate universe future'
p30
aS'alternate universe different first meeting'
p31
aS'friend au'
p32
aS'alternate universe zombie apocalypse'
p33
aS'alternate universe'
p34
aS'alternate universe canon divergence'
p35
aS'alternate universe rock band'
p36
aS'friend au'
p37
aS'alternate universe nonmagical'
p38
aS'alternate universe canon divergence'
p39
aS'friend au'
p40
aS'sexual assault'
p41
aS'alternate universe canon divergence'
p42
aS'everything beautiful nothing hurt'
p43
aS'alternate universe canon divergence'
p44
aS'alternate universe postcanon'
p45
aS'alternate universe high school'
p46
aS'friend au'
p47
aS'modern au'
p48
aS'friend au'
p49
aS'coffee shop au'
p50
aS'dinosaur freeform'
p51
aS'tyrannosaurus rex freeform'
p52
aS'alternate universe canon divergence'
p53
aS'alternate universe canon divergence'
p54
aS'friend au'
p55
aS'alternate universe modern setting'
p56
aS'alternate universe power'
p57
aS'laundry'
p58
aS'episode s01e05 one east german laundry detergent'
p59
aS'everything beautiful everything hurt'
p60
aS'author ha never dated'
p61
aS'alternate universe canon divergence'
p62
aS'everything beautiful nothing hurt'
p63
aS'alternate universe canon divergence'
p64
aS'alternate universe canon divergence'
p65
aS'everything beautiful nothing hurt'
p66
aS'everything beautiful nothing hurt'
p67
aS'alternate universe postcanon'
p68
aS'everything beautiful everything hurt'
p69
aS'alternate universe canon divergence'
p70
aS'alternate universe postcanon'
p71
aS'everything beautiful nothing hurt'
p72
aS'alternate universe postcanon'
p73
aS'alternate universe canon divergence'
p74
aS'alternate universe canon divergence'
p75
aS'everything beautiful nothing hurt'
p76
aS'alternate universe postcanon'
p77
aS'autumn'
p78
aS'everything beautiful nothing hurt'
p79
aS'alternate universe postcanon'
p80
aS'everything beautiful nothing hurt'
p81
aS'alternate universe canon divergence'
p82
aS'everything beautiful nothing hurt'
p83
aS'alternate universe modern setting'
p84
aS'alternate universe indian setting'
p85
aS'alternate universe canon divergence'
p86
aS'everything beautiful nothing hurt'
p87
aS'alternate universe postcanon'
p88
aS'everything beautiful nothing hurt'
p89
aS'alternate universe canon divergence'
p90
aS'alternate universe postcanon'
p91
aS'everything beautiful nothing hurt'
p92
aS'alternate universe canon divergence'
p93
aS'alternate universe canon divergence'
p94
aS'everything beautiful nothing hurt'
p95
aS'alternate universe canon divergence'
p96
aS'alternate universe canon divergence'
p97
aS'alternate universe postcanon'
p98
aS'everything beautiful nothing hurt'
p99
aS'alternate universe canon divergence'
p100
aS'everything beautiful nothing hurt'
p101
aS'aunt uncle'
p102
aS'alternate universe canon divergence'
p103
aS'everything beautiful nothing hurt'
p104
aS'everything beautiful nothing hurt'
p105
aS'alternate universe canon divergence'
p106
aS'alternate universe canon divergence'
p107
aS'everything beautiful nothing hurt'
p108
aS'santa claus freeform'
p109
aS'everything beautiful nothing hurt'
p110
aS'alternate universe canon divergence'
p111
aS'alternate universe postcanon'
p112
aS'alternate universe canon divergence'
p113
aS'alternate universe canon divergence'
p114
aS'everything beautiful nothing hurt'
p115
aS'alternate universe canon divergence'
p116
aS'alternate universe postcanon'
p117
aS'everything beautiful nothing hurt'
p118
aS'everything beautiful nothing hurt'
p119
aS'alternate universe canon divergence'
p120
aS'alternate universe postcanon'
p121
aS'alternate universe canon divergence'
p122
aS'alternate universe postcanon'
p123
aS'everything beautiful nothing hurt'
p124
aS'alternate universe canon divergence'
p125
aS'everything beautiful nothing hurt'
p126
aS'alternate universe canon divergence'
p127
aS'everything beautiful nothing hurt'
p128
aS'fatherdaughter relationship'
p129
aS'fatherdaughter moment'
p130
aS'fatherdaughter relationship'
p131
aS'fatherdaughter moment'
p132
aS'modern au'
p133
aS'friend au'
p134
aS'coffee shop au'
p135
aS'alternate universe coffee shop cafu00e9s'
p136
aS'alternate universe friend'
p137
aS'au'
p138
aS'alternate universe'
p139
aS'alternate universe fusion'
p140
aS'friendsau'
p141
aS'alternate universe superheroessuperpowers'
p142
aS'alternate universe'
p143
aS'alternate universe fantasy'
p144
aS'alternate universe canon divergence'
p145
aS'alternate universe canon divergence'
p146
aS'caught'
p147
aS'au'
p148
aS'alternate universe fantasy'
p149
aS'alternate universe apocalypse'
p150
aS'alternate universe modern setting'
p151
aS'caught'
p152
aS'alternate universe canon divergence'
p153
aS'au'
p154
aS'modern au'
p155
aS'friend au carmilla character'
p156
aS'alternate universe modern setting'
p157
aS'alternate universe hunger game setting'
p158
aS'alternate universe'
p159
aS'alternate universe collegeuniversity'
p160
aS'alternate universe modern setting'
p161
aS'friend au'
p162
aS'audio format mp3'
p163
aS'werewolf au'
p164
aS'alternate universe crack'
p165
aS'au'
p166
aS'friend au'
p167
aS'alternate universe'
p168
aS'alternate universe werewolf'
p169
aS'alternate universe modern setting'
p170
aS'alternate universe friend tv fusion'
p171
aS'alternate universe mob'
p172
aS'alternate universe canon divergence'
p173
aS'alternate universe coffee shop cafu00e9s'
p174
aS'alternate universe high school'
p175
aS'montauk'
p176
aS'alternate universe'
p177
aS'write watch friend read friend au'
p178
aS'friendsau'
p179
aS'alternate universe'
p180
aS'alternate universe dark'
p181
aS'au'
p182
aS'santa claus freeform'
p183
aS'audio format mp3'
p184
aS'audio format m4b'
p185
aS'alternate universe canon divergence'
p186
aS'alternate universe'
p187
a.