(lp0
(lp1
a(lp2
a(lp3
a(lp4
a(lp5
a(lp6
a(lp7
a(lp8
a(lp9
a(lp10
a(lp11
a(lp12
a(lp13
a(lp14
a(lp15
a(lp16
a(lp17
a(lp18
a(lp19
a(lp20
a(lp21
a(lp22
a(lp23
a(lp24
a(lp25
I8
aa(lp26
a(lp27
a(lp28
a(lp29
a(lp30
a(lp31
a(lp32
a(lp33
a(lp34
a(lp35
a(lp36
a(lp37
a(lp38
a(lp39
a(lp40
a(lp41
I8
aa(lp42
a(lp43
a(lp44
a(lp45
a(lp46
I8
aI8
aI8
aa(lp47
I8
aa(lp48
a(lp49
a(lp50
a(lp51
a(lp52
a(lp53
a(lp54
a(lp55
a(lp56
a(lp57
I1
aa(lp58
a(lp59
a(lp60
a(lp61
a(lp62
a(lp63
a(lp64
a(lp65
a(lp66
a(lp67
a(lp68
a(lp69
a(lp70
a(lp71
a(lp72
a(lp73
a(lp74
a(lp75
a(lp76
a(lp77
a(lp78
a(lp79
a(lp80
a(lp81
a(lp82
a(lp83
a(lp84
a(lp85
a(lp86
a(lp87
a(lp88
a(lp89
a(lp90
a(lp91
a(lp92
a(lp93
a(lp94
a(lp95
a(lp96
a(lp97
a(lp98
a(lp99
a(lp100
a(lp101
a(lp102
a(lp103
a(lp104
a(lp105
a(lp106
a(lp107
a(lp108
a(lp109
a(lp110
a(lp111
a(lp112
a(lp113
I8
aa(lp114
a(lp115
I9
aa(lp116
a(lp117
a(lp118
a(lp119
a(lp120
a(lp121
a(lp122
a(lp123
a(lp124
a(lp125
a(lp126
a(lp127
a(lp128
a(lp129
I8
aa(lp130
I6
aI6
aI7
aI7
aa(lp131
a(lp132
a(lp133
a(lp134
a(lp135
I8
aa(lp136
a(lp137
a(lp138
a(lp139
a(lp140
a(lp141
a(lp142
a(lp143
a(lp144
a(lp145
a(lp146
a(lp147
a(lp148
I8
aa(lp149
a(lp150
a(lp151
a(lp152
a(lp153
a(lp154
a(lp155
a(lp156
a(lp157
a(lp158
a(lp159
a(lp160
a(lp161
a(lp162
a(lp163
a(lp164
a(lp165
a(lp166
a(lp167
a(lp168
a(lp169
a(lp170
a(lp171
I1
aa(lp172
a(lp173
I8
aa(lp174
a(lp175
a(lp176
a(lp177
a(lp178
I8
aI3
aa(lp179
a(lp180
a(lp181
a(lp182
I8
aa(lp183
a(lp184
a(lp185
a(lp186
a(lp187
a(lp188
a(lp189
a(lp190
a(lp191
a(lp192
a(lp193
a(lp194
a(lp195
a(lp196
a(lp197
a(lp198
a(lp199
a(lp200
a(lp201
a(lp202
a(lp203
a(lp204
a(lp205
a(lp206
a(lp207
a(lp208
a(lp209
a(lp210
a(lp211
a(lp212
a(lp213
a(lp214
a(lp215
a(lp216
a(lp217
a(lp218
a(lp219
a(lp220
a(lp221
a(lp222
a(lp223
a(lp224
a(lp225
a(lp226
a(lp227
a(lp228
a(lp229
a(lp230
a(lp231
a(lp232
a(lp233
a(lp234
a(lp235
a(lp236
a(lp237
a(lp238
a(lp239
a(lp240
a(lp241
a(lp242
a(lp243
a(lp244
a(lp245
a(lp246
a(lp247
a(lp248
a(lp249
a(lp250
a(lp251
a(lp252
a(lp253
a(lp254
a(lp255
a(lp256
a(lp257
a(lp258
a(lp259
a(lp260
a(lp261
a(lp262
a(lp263
a(lp264
a(lp265
a(lp266
a(lp267
a(lp268
a(lp269
a(lp270
a(lp271
a(lp272
a(lp273
a(lp274
a(lp275
a(lp276
a(lp277
a(lp278
a(lp279
a(lp280
a(lp281
a(lp282
a(lp283
a(lp284
a(lp285
a(lp286
a(lp287
a(lp288
a(lp289
a(lp290
a(lp291
a(lp292
a(lp293
a(lp294
a(lp295
a(lp296
a(lp297
a(lp298
a(lp299
a(lp300
a(lp301
a(lp302
a(lp303
a(lp304
a(lp305
a(lp306
a(lp307
a(lp308
a(lp309
a(lp310
a(lp311
a(lp312
a(lp313
a(lp314
a(lp315
a(lp316
I8
aI3
aa(lp317
I3
aI8
aa(lp318
a(lp319
a(lp320
a(lp321
a(lp322
a(lp323
a(lp324
a(lp325
a(lp326
a(lp327
a(lp328
a(lp329
a(lp330
a(lp331
a(lp332
a(lp333
a(lp334
a(lp335
a(lp336
a(lp337
a(lp338
a(lp339
a(lp340
a(lp341
a(lp342
a(lp343
a(lp344
a(lp345
a(lp346
a(lp347
a(lp348
a(lp349
a(lp350
a(lp351
a(lp352
I0
aa(lp353
a(lp354
a(lp355
a(lp356
a(lp357
a(lp358
a(lp359
a(lp360
a(lp361
a(lp362
a(lp363
a(lp364
a(lp365
a(lp366
I0
aa(lp367
a(lp368
a(lp369
a(lp370
I6
aa(lp371
a(lp372
a(lp373
a(lp374
a(lp375
a(lp376
a(lp377
a(lp378
a(lp379
a(lp380
a(lp381
a(lp382
I8
aa(lp383
a(lp384
a(lp385
a(lp386
a(lp387
a(lp388
a(lp389
a(lp390
a(lp391
a(lp392
a(lp393
a(lp394
a(lp395
a(lp396
a(lp397
I8
aa(lp398
a(lp399
a(lp400
a(lp401
a(lp402
a(lp403
a(lp404
a(lp405
a(lp406
a(lp407
a(lp408
a(lp409
a(lp410
I6
aa(lp411
a(lp412
a(lp413
a(lp414
a(lp415
a(lp416
a(lp417
a(lp418
a(lp419
I8
aI6
aa(lp420
a(lp421
a(lp422
a(lp423
a(lp424
a(lp425
a(lp426
a(lp427
a(lp428
I8
aa(lp429
a(lp430
a(lp431
a(lp432
a(lp433
a(lp434
a(lp435
a(lp436
a(lp437
a(lp438
a(lp439
a(lp440
a(lp441
a(lp442
I3
aa(lp443
a(lp444
I1
aa(lp445
a(lp446
a(lp447
a(lp448
a(lp449
a(lp450
a(lp451
a(lp452
a(lp453
a(lp454
a(lp455
a(lp456
a(lp457
a(lp458
a(lp459
a(lp460
a(lp461
a(lp462
a(lp463
a(lp464
a(lp465
a(lp466
a(lp467
a(lp468
a(lp469
a(lp470
a(lp471
a(lp472
I8
aa(lp473
a(lp474
a(lp475
a(lp476
a(lp477
a(lp478
a(lp479
a(lp480
a(lp481
a(lp482
a(lp483
a(lp484
a(lp485
a(lp486
a(lp487
a(lp488
a(lp489
a(lp490
a(lp491
a(lp492
a(lp493
a(lp494
a(lp495
a(lp496
a(lp497
a(lp498
a(lp499
a(lp500
a(lp501
a(lp502
a(lp503
a(lp504
a(lp505
a(lp506
a(lp507
a(lp508
a(lp509
a(lp510
a(lp511
a(lp512
a(lp513
a(lp514
a(lp515
a(lp516
a(lp517
a(lp518
a(lp519
a(lp520
a(lp521
a(lp522
a(lp523
a(lp524
a(lp525
a(lp526
a(lp527
a(lp528
a(lp529
a(lp530
a(lp531
a(lp532
a(lp533
a(lp534
a(lp535
a(lp536
a(lp537
a(lp538
a.