(lp0
(lp1
S'joey pov'
p2
aS'catholic joey'
p3
aS'sexuality crisis'
p4
aS'catholic guilt'
p5
aS'joey need hug'
p6
aS'sandwich'
p7
aS'preferably time'
p8
aS'phoebe good bro'
p9
aS'rachel good bro'
p10
aS'monica good bro'
p11
aS'girl bros joey need life'
p12
aa(lp13
a(lp14
S'untanslatable word bingo'
p15
aS'personal bingo challenge'
p16
aS'confetti'
p17
aS'drabble'
p18
aa(lp19
S'anal sex'
p20
aS'oral sex'
p21
aS'sex'
p22
aS'rough sex'
p23
aS'public sex'
p24
aS'semipublic sex'
p25
aS'underage sex'
p26
aS'gay sex'
p27
aS'drunk sex'
p28
aS'blow job'
p29
aS'first time blow job'
p30
aS'public blow job'
p31
aS'first kiss'
p32
aS'boy kissing'
p33
aS'kissing'
p34
aS'rough kissing'
p35
aS'drunken kissing'
p36
aS'making'
p37
aS'making love'
p38
aS'hairpulling'
p39
aS'hair'
p40
aS'hair kink'
p41
aS'rapenoncon element'
p42
aS'car sex'
p43
aS'first time'
p44
aS'revenge sex'
p45
aS'revenge'
p46
aS'teacherstudent relationship'
p47
aS'workplace relationship'
p48
aS'workplace sex'
p49
aS'bossemployee relationship'
p50
aS'bathroom sex'
p51
aS'fatherson relationship'
p52
aS'questioning'
p53
aS'roleplay'
p54
aS'daddy issue'
p55
aS'daddy kink'
p56
aS'uniform kink'
p57
aS'police uniform'
p58
aS'brotherly affection'
p59
aS'stripper strip club'
p60
aS'stripper sam'
p61
aS'fetish'
p62
aS'lace panty'
p63
aS'panty kink'
p64
aS'underwear kink'
p65
aS'watching'
p66
aS'masturbation'
p67
aS'jealousy'
p68
aS'denial'
p69
aS'doctorpatient'
p70
aS'blow job car'
p71
aS'challenge'
p72
aS'office sex'
p73
aS'choking'
p74
aS'loss virginity'
p75
aS'witness protection'
p76
aS'hotel sex'
p77
aS'brotherbrother incest'
p78
aS'incest'
p79
aS'sibling incest'
p80
aS'interrogation'
p81
aS'sex toy'
p82
aS'nipple clamp'
p83
aS'wax play'
p84
aS'shock'
p85
aa(lp86
S'smut'
p87
aS'fluff'
p88
aS'first time'
p89
aS'virgin'
p90
aS'gay'
p91
aS'internalized homophobia'
p92
aS'oral'
p93
aS'anal'
p94
aS'anal sex'
p95
aS'anal fingering'
p96
aS'fingering'
p97
aS'fluff smut'
p98
aa(lp99
S'friendship'
p100
aS'preseries'
p101
aS'canon compliant'
p102
aa(lp103
S'established relationship'
p104
aS'chandler joey'
p105
aS'slow build'
p106
aS'everyone gay tbh'
p107
aS'except ross choke'
p108
aS'tag update'
p109
aS'multiple pov'
p110
aa(lp111
S'crack'
p112
aa(lp113
S'first kiss'
p114
aS'friend lover'
p115
aa(lp116
S'nonsexual ageplay'
p117
aa(lp118
S'emotional hurtcomfort'
p119
aS'chandler baby need told okay'
p120
aa(lp121
S'fiction'
p122
aS'supernatural freeform'
p123
aS'noncanon'
p124
aa(lp125
S'cute'
p126
aS'kissing'
p127
aS'hurtcomfort'
p128
aS'chandler freak nothing new'
p129
aS'probably ooc'
p130
aS'joey precious love'
p131
aa(lp132
a(lp133
S'inspired proposal 2008 movie'
p134
aS'chandler joey looove dont know yet'
p135
aS'season onetwo look wise'
p136
aS'gay marriage legal'
p137
aS'doesnt follow seasonep story arc'
p138
aS'au'
p139
aa(lp140
a(lp141
S'joey chandler adorably oblivous'
p142
aS'fluff fluff fluff'
p143
aa(lp144
a(lp145
S'itu2019s pining folk'
p146
aa(lp147
S'dancing'
p148
aS'established relationship'
p149
aS'know super shitty guy im sorry im supposed studying im'
p150
aS'slowly surely dying'
p151
aS'also wa mood chanoey u go'
p152
aS'domestic fluff'
p153
aS'mild language'
p154
aS'light angst'
p155
aa(lp156
S'spanking'
p157
aa(lp158
S'spanking'
p159
aS'bromance'
p160
aS'close friend'
p161
aa(lp162
S'spanking'
p163
aS'bros'
p164
aS'bromance'
p165
aS'belt'
p166
aS'chandler mad'
p167
aS'joey want fix'
p168
aa(lp169
S'inspired friend'
p170
aS'fluff humor'
p171
aS'fluff'
p172
aS'underage smoking'
p173
aS'cigar'
p174
aa(lp175
S'lance harem'
p176
aS'really freeform'
p177
aS'friend au'
p178
aS'stupid crap'
p179
aS'trans lance voltron'
p180
aS'trans pidge katie holt'
p181
aa(lp182
S'unrequited crush'
p183
aS'ficlet'
p184
aa(lp185
S'mutual pining'
p186
aS'friend lover'
p187
aS'childhood friend'
p188
aS'comedy'
p189
aS'romance'
p190
aa(lp191
S'first kiss'
p192
aa(lp193
S'eleven rachael clueless mike feeling'
p194
aS'mike ross hopelessly love el'
p195
aS'max monica even though mike arent sibling work'
p196
aS'lucas chandler one comedian group love max'
p197
aS'dustin joey comedian'
p198
aS'phoebe clueless'
p199
aa(lp200
a(lp201
S'mutual pining'
p202
aS'jealousy'
p203
aS'first kiss'
p204
aS'cuddling snuggling'
p205
aS'getting together'
p206
aS'friend lover'
p207
aS'fluff angst'
p208
aS'angst happy ending'
p209
aS'gay chandler'
p210
aS'bisexual joey'
p211
aS'chandler scared rejection'
p212
aS'need hug'
p213
aa(lp214
a(lp215
S'joey possessive asf'
p216
aS'protective'
p217
aS'slow burn'
p218
aS'cutesy stuff'
p219
aS'love joey'
p220
aS'chandler lil shit'
p221
aS'cute lil shit'
p222
aS'chandler joeys amazing friendship'
p223
aS'love much'
p224
aS'ross rachel cute'
p225
aS'usual'
p226
aS'sarcastic shit lols'
p227
aS'joey never loved rachel'
p228
aa(lp229
S'wow theyre cute'
p230
aS'ship'
p231
aa(lp232
S'friendship'
p233
aS'friend lover'
p234
aS'dont even know'
p235
aa(lp236
S'alternate universe canon divergence'
p237
aS'alternate universe'
p238
aS'lesbian character'
p239
aS'homophobia'
p240
aS'rachel monica love deal'
p241
aS'love much'
p242
aS'anger'
p243
aS'ross dick'
p244
aS'cant accept love yet another lesbian'
p245
aS'love sister oops'
p246
aS'dont like ross made clear yet'
p247
aS'could potentially worst one shot'
p248
aS'short fuck im disappointment'
p249
aS'update finished fact worst one shot'
p250
aS'ross justu2026 dumb'
p251
aS'monica rachel otp tho protective rachel im'
p252
aS'im sorry sorta crap yall'
p253
aa(lp254
S'kissing'
p255
aS'french kissing'
p256
aS'lesbian sex'
p257
aS'resolved sexual tension'
p258
aS'friendship'
p259
aS'female friendship'
p260
aS'friend benefit'
p261
aS'hookup'
p262
aS'nipple play'
p263
aS'fingerfucking'
p264
aS'vaginal fingering'
p265
aS'cunnilingus'
p266
aS'facesitting'
p267
aS'69 sex position'
p268
aS'orgasm'
p269
aa(lp270
S'duck'
p271
aS'chick'
p272
aS'light freeform'
p273
aS'angst'
p274
aS'drabble'
p275
aS'oneshot'
p276
aS'gay'
p277
aS'lot implied'
p278
aa(lp279
S'fluff'
p280
aS'smut'
p281
aS'lot innuendo tho'
p282
aS'joey yall'
p283
aS'joey chandler dont live together'
p284
aS'chandler life canon apartment'
p285
aS'joeys dwelling irrelevant'
p286
aS'want happiness boy'
p287
aa(lp288
S'past monicarachel relationship'
p289
aS'bisexual monica'
p290
aS'sort retelling friend story'
p291
aS'loosely follows series'
p292
aS'sense guided'
p293
aS'kinda take direction'
p294
aS'gay'
p295
aS'one thing'
p296
aS'coming story'
p297
aS'coming'
p298
aS'also take place roughly modern day'
p299
aS'specific year attached'
p300
aS'updating'
p301
aS'tag updated story go'
p302
aa(lp303
S'theo rachel'
p304
aS'liam ross'
p305
aS'derek monica'
p306
aS'stile chandler'
p307
aS'malia joey'
p308
aS'lydia phoebe'
p309
aS'hayden carol'
p310
aS'tracey susan'
p311
aS'josh barry'
p312
aS'kate paul'
p313
aS'friend au'
p314
aS'preslash'
p315
aS'thiam'
p316
aa(lp317
S'fake marriage'
p318
aS'fakepretend relationship'
p319
aS'fake relationship real feeling'
p320
aS'brother really like fan fiction'
p321
aa(lp322
S'romance'
p323
aS'fluff'
p324
aS'canon het relationship'
p325
aS'postcanon'
p326
aS'community commentfic'
p327
aa(lp328
S'theo raeken liam dunbars anchor'
p329
aS'secret relationship'
p330
aS'sneaking'
p331
aS'pink sweater'
p332
aS'theo love liam'
p333
aS'liam love theo'
p334
aS'scott hate theo'
p335
aS'stile derek domestic'
p336
aS'humor'
p337
aS'friend lover'
p338
aS'post series'
p339
aS'like seven year later maybe'
p340
aa(lp341
S'romance'
p342
aS'friendship'
p343
aS'one night stand'
p344
aS'embarrassment'
p345
aS'lot embarrassment'
p346
aS'literally start main character getting embarrassed'
p347
aa(lp348
S'ot3 friend au'
p349
aS'friend au'
p350
aS'friend au one person asked'
p351
aa(lp352
S'fluff'
p353
aS'based love simon'
p354
aS'boyfriend'
p355
aS'bts freeform'
p356
aS'smut'
p357
aS'gay'
p358
aS'gay sex'
p359
aS'awkward flirting'
p360
aS'love simon sequel au one asked'
p361
aS'friend freeform'
p362
aS'domestic'
p363
aS'angst'
p364
aS'based friend'
p365
aS'hitchhiking'
p366
aS'road trip'
p367
aS'alternate universe collegeuniversity'
p368
aS'alternate universe collegeuniversity'
p369
aS'alternate universe domestic'
p370
aS'love simon sequel meet friend au one asked'
p371
aS'ot7'
p372
aS'wholesome'
p373
aa(lp374
S'vague sexual description'
p375
aS'run sentence'
p376
aS'theyu2019re stylistic promise'
p377
aa(lp378
S'alternate universe'
p379
aS'hurt'
p380
aa(lp381
S'alternate universe'
p382
aS'finished friend today im cry'
p383
aS'love rachel monica much otp'
p384
aS'look monica know give rachel heart eye'
p385
aS'ross doe deserve rachel'
p386
aa(lp387
S'rough gonna lie'
p388
aS'joey love chandler'
p389
aS'chandler emotionally fucked'
p390
aS'hurtcomfort'
p391
aS'established relationship'
p392
aS'vomit warning chapter 3'
p393
aa(lp394
S'gayest thing ever written'
p395
aS'thats saying something'
p396
aS'probably suck'
p397
aS'tried best okay'
p398
aS'gay'
p399
aS'light angst'
p400
aS'fluff'
p401
aS'fluff angst'
p402
aS'fluff cuz thats'
p403
aa(lp404
S'internalized homophobia'
p405
aS'homophobia'
p406
aS'postseasonseries finale'
p407
aS'everyone gay'
p408
aS'ambiguousopen ending'
p409
aS'one shot'
p410
aa(lp411
S'seasonseries 04'
p412
aS'wedding'
p413
aS'wedding'
p414
aS'sex'
p415
aS'postwedding'
p416
aS'love'
p417
aS'love confession'
p418
aS'boy love'
p419
aS'falling love'
p420
aS'idiot love'
p421
aS'dork love'
p422
aS'angst fluff smut'
p423
aS'developing relationship'
p424
aS'friend lover'
p425
aS'prerelationship'
p426
aS'secret relationship'
p427
aS'couple'
p428
aS'boy kissing'
p429
aS'denial feeling'
p430
aS'feeling realization'
p431
aS'love'
p432
aS'declaration love'
p433
aS'true love'
p434
aS'friendshiplove'
p435
aS'eventual romance'
p436
aa(lp437
a(lp438
S'love confession'
p439
aS'marriage proposal'
p440
aS'gay'
p441
aS'making'
p442
aS'canon gay relationship'
p443
aS'relationship problem'
p444
aS'smoking'
p445
aS'fight'
p446
aS'trust issue'
p447
aS'commitment'
p448
aS'commitment issue'
p449
aS'chandler ha relationship issue'
p450
aS'scared chandler'
p451
aS'love'
p452
aS'true love'
p453
aS'dinner'
p454
aS'chandler love joey'
p455
aS'joey love chandler'
p456
aS'break'
p457
aS'break talk'
p458
aS'postbreak'
p459
aS'emotionally screwed'
p460
aS'emotional hurtcomfort'
p461
aS'emotional hurt'
p462
aS'angst hurtcomfort'
p463
aS'fluff'
p464
aS'fluff smut'
p465
aS'boy kissing'
p466
aS'kissing'
p467
aS'kiss'
p468
aS'humor'
p469
aS'feeling'
p470
aS'confused feeling'
p471
aS'hurt joey'
p472
aS'betrayed'
p473
aS'partner betrayal'
p474
aS'betrayal'
p475
aS'love'
p476
aS'future husband'
p477
aS'husband'
p478
aS'angst happy ending'
p479
aS'happy ending'
p480
aS'eventual happy ending'
p481
aS'romance'
p482
aS'romantic fluff'
p483
aS'candle light dinner'
p484
aS'future marriage'
p485
aS'eventual marriage'
p486
aS'cute'
p487
aS'chandler joey'
p488
aS'idiot love'
p489
aS'boy love'
p490
aS'declaration love'
p491
aS'dork love'
p492
aa(lp493
S'best friend'
p494
aS'high school'
p495
aS'bisexuality'
p496
aS'bisexual male character'
p497
aS'internalized homophobia'
p498
aS'teen crush'
p499
aS'alternate universe high school'
p500
aa(lp501
S'one shot'
p502
aS'request'
p503
aa(lp504
S'break'
p505
aS'sad'
p506
aS'angst'
p507
aS'sorry sorry'
p508
aa(lp509
S'internalized homophobia'
p510
aS'fluff'
p511
aS'getting together'
p512
aS'angst'
p513
aS'schmoop'
p514
aS'first kiss'
p515
aS'borderline smut'
p516
aS'like quite'
p517
aS'threesome mention'
p518
aS'friendship'
p519
aS'joey good friend'
p520
aS'chandler mess'
p521
aS'love'
p522
aa(lp523
S'ficlet'
p524
aS'humor'
p525
aS'cooking'
p526
aa(lp527
S'chanoey freeform'
p528
aa(lp529
S'angst'
p530
aS'hurtcomfort'
p531
aS'humor'
p532
aa(lp533
S'fake marriage proposal'
p534
aS'marriage proposal'
p535
aS'misunderstanding'
p536
aS'guess'
p537
aS'fluff'
p538
aa(lp539
S'jealous monica'
p540
aS'mad chandler'
p541
aS'hurt joey'
p542
aS'accepting monica'
p543
aa(lp544
S'one shot'
p545
aS'toothrotting fluff'
p546
aS'yall cheesy u idea'
p547
aS'cant believe much love two dumb boy'
p548
aa(lp549
S'coming'
p550
aS'love confession'
p551
aS'fluff angst'
p552
aS'happy ending'
p553
aa(lp554
S'tumblr prompt'
p555
aa(lp556
S'getting together'
p557
aS'first kiss'
p558
aS'fluff'
p559
aS'slight homophobia'
p560
aS'get resolved pretty quickly'
p561
aS'cooking'
p562
aS'pasta'
p563
aS'short'
p564
aS'realization feeling'
p565
aS'much damn fluff'
p566
aa(lp567
S'tow booby'
p568
aS'season 1'
p569
aS'sharing bed'
p570
aS'first kiss'
p571
aS'confession'
p572
aa(lp573
S'gaychandler'
p574
aS'sorry really messy first ever fanfic'
p575
aS'betad sorry mistake'
p576
aS'also sorry ooc thought couldnt leave alone write'
p577
aS'take place like season 2'
p578
aS'chandler carol totally could friend k'
p579
aS'bisexualjoey'
p580
aS'super minor rossrachel'
p581
aS'super minor language warning btw'
p582
aa(lp583
S'postcanon'
p584
aS'spoiler'
p585
aa(lp586
S'hurtcomfort'
p587
aS'first kiss'
p588
aa(lp589
a(lp590
a(lp591
S'fluff'
p592
aa(lp593
S'cute boy cute'
p594
aS'joey actually really romantic'
p595
aS'au joeys bisexual'
p596
aS'wait thats au'
p597
aa(lp598
S'angst'
p599
aS'introspection'
p600
aS'posttow joey leaf'
p601
aa(lp602
S'episode related'
p603
aS'literally rewrite season 1 episode 7'
p604
aS'good swear'
p605
aS'cute'
p606
aS'alternating pov'
p607
aS'altho mentioned'
p608
aS'rachel monica together universe'
p609
aS'least end together'
p610
aa(lp611
a(lp612
S'alternate universe canon divergence'
p613
aS'pining'
p614
aS'guilt'
p615
aS'angst'
p616
aa(lp617
a(lp618
S'angst'
p619
aS'break'
p620
aa(lp621
S'flirting'
p622
aS'school reunion'
p623
aa(lp624
S'chandler pov'
p625
aS's2'
p626
aS'helpful phoebe'
p627
aS'friend lover'
p628
aS'fluff'
p629
aS'bit angst'
p630
aS'probably tropey cliche'
p631
aa(lp632
S'panic attack'
p633
aS'hurtcomfort'
p634
aS'guess'
p635
aa(lp636
S'coming'
p637
aa(lp638
S'fluff angst'
p639
aS'romance'
p640
aS'idiot love'
p641
aS'oblivious chandler'
p642
aS'oblivious joey'
p643
aS'sick joey'
p644
aS'love confession'
p645
aS'friendshiplove'
p646
aa(lp647
S'alternate universe canon divergence'
p648
aS'fixit'
p649
aa(lp650
S'angst'
p651
aS'tw rape'
p652
aS'recovery fic'
p653
aa(lp654
S'angst'
p655
aS'family drama'
p656
aa(lp657
a(lp658
S'christmas'
p659
aS'mistletoe'
p660
aS'kissing'
p661
aS'fluff'
p662
aS'malefemale friendship'
p663
aS'rachel chandler wld super friend'
p664
aS'scene together lol'
p665
aS'ross eh'
p666
aa(lp667
S'break'
p668
aS'postbreak'
p669
aS'impliedreferenced cheating'
p670
aS'cheating'
p671
aS'rachel phoebe break'
p672
aS'angst'
p673
aS'angst feel'
p674
aS'angst happy ending'
p675
aS'think happy ending'
p676
aa(lp677
S'first kiss'
p678
aS'alternate universe canon divergence'
p679
aS'awkward kissing'
p680
aS'crush'
p681
aa(lp682
S'hurt'
p683
aS'episode related'
p684
aS'abuse'
p685
aa(lp686
S'friend freeform'
p687
aS'sexting'
p688
aS'love'
p689
aS'daddy issue'
p690
aS'daddy kink'
p691
aS'masturbation'
p692
aa(lp693
S'anal sex'
p694
aS'gay'
p695
aS'gay sex'
p696
aS'joeychandler freeform'
p697
aS'chandlerjoey'
p698
aS'gay male character'
p699
aS'play'
p700
aS'love'
p701
aS'romance'
p702
aS'smut'
p703
aS'fluff'
p704
aS'literally porn'
p705
aS'dirty talk'
p706
aa(lp707
S'sex'
p708
aS'birthday sex'
p709
aS'anal sex'
p710
aS'oral sex'
p711
aS'gay'
p712
aS'male friendship'
p713
aS'friend freeform'
p714
aS'smut'
p715
aS'fluff smut'
p716
aS'gay sex'
p717
aS'rough sex'
p718
aS'rimming'
p719
aS'making'
p720
aa(lp721
S'cute'
p722
aS'fluff'
p723
aS'fluffy'
p724
aS'hot'
p725
aS'one joey kiss chandler'
p726
aa(lp727
S'sex'
p728
aS'anal sex'
p729
aS'oral sex'
p730
aS'gay'
p731
aS'gay sex'
p732
aS'chandlerjoey'
p733
aS'fuck buddy'
p734
aS'public masturbation'
p735
aS'doctorpatient'
p736
aS'love'
p737
aS'romance'
p738
aS'smut'
p739
aS'dirty freeform'
p740
aa(lp741
S'original character'
p742
aS'anal sex'
p743
aS'oral sex'
p744
aS'rough oral sex'
p745
aS'kissing'
p746
aS'boy kissing'
p747
aS'blowjob'
p748
aS'rimming'
p749
aS'masturbation bathroom'
p750
aS'masturbation'
p751
aS'first kiss'
p752
aS'love'
p753
aS'gay'
p754
aS'gay sex'
p755
aS'everyone gay'
p756
aS'romantic friendship'
p757
aS'chandlerjoey'
p758
aS'fandom'
p759
aS'friend fandom'
p760
aa(lp761
S'angst'
p762
aS'hurtcomfort'
p763
aS'fluff'
p764
aa(lp765
S'supernatural spin friend'
p766
aS'explicit gay sex'
p767
aa(lp768
S'accidental proposal'
p769
aS'fluff'
p770
aS'actor joeys made big'
p771
aS'trophy boyfriend chandler'
p772
aS'dont know tag'
p773
aS'theyre sappy okay'
p774
aS'watch ignoring historical accuracy'
p775
aS'character mentioned briefly mostly two boy'
p776
aS'im sorry title limited creativity'
p777
aS'established relationship'
p778
aS'stage acting'
p779
aS'marriage proposal'
p780
aS'samesex marriage'
p781
aS'alcohol'
p782
aS'play much ado nothing shakespeare'
p783
aa(lp784
S'sherlock friend style'
p785
aS'ill song'
p786
aS'fanvids'
p787
aa(lp788
S'friend freeform'
p789
aS'cute'
p790
aS'fluff'
p791
aS'heartbeat freeform'
p792
aa(lp793
S'friend lover'
p794
aS'hurtcomfort'
p795
aS'break'
p796
aS'cheating'
p797
aS'alternate universe canon divergence'
p798
aS'internalized homophobia'
p799
aS'love confession'
p800
aS'best friend'
p801
aS'seasonseries 04'
p802
aS'episode related'
p803
aS'romance'
p804
aS'attempt humor'
p805
aa(lp806
S'friend lover'
p807
aS'canon compliant'
p808
aS'pov chandler'
p809
aS'chandler gay'
p810
aS'coming'
p811
aa(lp812
S'31 day fanfiction challenge'
p813
aS'angst'
p814
aS'break'
p815
aS'canon compliant'
p816
aa(lp817
S'first kiss'
p818
aS'fakepretend relationship'
p819
aS'making'
p820
aS'neck kissing'
p821
aS'friend lover'
p822
aa(lp823
S'secret relationship'
p824
aS'friendshiplove'
p825
aS'idiot love'
p826
aS'joey adorable'
p827
aS'chandler gay'
p828
aa(lp829
S'friend au'
p830
aS'alternate universe muggle'
p831
aS'marauder era'
p832
aS'alternate universe modern setting'
p833
aS'romance'
p834
aS'awkward romance'
p835
aS'fluff humor'
p836
aS'angst humor'
p837
aS'slow burn'
p838
aa(lp839
S'trans male character'
p840
aS'trans character'
p841
aS'getting together'
p842
aS'coming'
p843
aS'fluff'
p844
aS'making'
p845
aS'know wa already episode title'
p846
aS'entirely unrelated one'
p847
aa(lp848
S'alternate universe daemon'
p849
aa(lp850
S'gay'
p851
aS'homooo'
p852
aS'admittance'
p853
aS'first experience guy'
p854
aS'love'
p855
aS'love confession'
p856
aS'joeychandler freeform'
p857
aa(lp858
a(lp859
S'shameless smut'
p860
aa(lp861
S'first time'
p862
aS'friend lover'
p863
aS'blow job'
p864
aS'episode s1e08 one nana dy twice'
p865
aS'aka one lady chandler office think gay'
p866
aa(lp867
S'small idea'
p868
aS'turned fics'
p869
aS'one really long'
p870
aS'one medium ish'
p871
aS'rest meh'
p872
aS'theyre meh'
p873
aS'nothing icky far im aware'
p874
aS'dont judge'
p875
aS'wa young wrote'
p876
aS'awful writing'
p877
aS'name lotr'
p878
aS'elvish language'
p879
aS'yay'
p880
aS'name eragon'
p881
aS'huntsman winter war'
p882
aa(lp883
S'dubcon'
p884
aS'dubious consent'
p885
aS'joey take one girl'
p886
aS'bisexual joey'
p887
aS'closeted joey'
p888
aS'chandler help joey'
p889
aS'joey get bit messed'
p890
aS'suck writing'
p891
aS'dead dove eat'
p892
aa(lp893
S'first kiss'
p894
aS'friend lover'
p895
aS'best friend'
p896
aS'developing relationship'
p897
aS'character development'
p898
aS'coming'
p899
aS'bisexuality'
p900
aS'fluff'
p901
aS'romance'
p902
aS'humor'
p903
aa(lp904
S'romance'
p905
aS'drama romance'
p906
aa(lp907
S'alternate universe'
p908
aS'alternate universe future'
p909
aS'friend inspired'
p910
aS'alternate universe different first meeting'
p911
aS'first meeting'
p912
aS'skam fic week'
p913
aS'skam fic week day 7'
p914
aa(lp915
S'first kiss'
p916
aS'experimentation'
p917
aS'chandler trying figure sexuality joeys good friend'
p918
aa(lp919
S'angst'
p920
aS'monica chandler good couple'
p921
aa(lp922
S'georgeclooneygivesadvice'
p923
aa(lp924
S'gay heckk'
p925
aa(lp926
S'nejiten freeform'
p927
aS'sasusaku freeform'
p928
aS'naruhina freeform'
p929
aS'inosai freeform'
p930
aS'genderbendershika'
p931
aS'humour'
p932
aS'romance'
p933
aS'friendship'
p934
aS'love'
p935
aS'growth'
p936
aS'slowburn'
p937
aS'friend au'
p938
aS'soulmatching'
p939
aa(lp940
S'drabble'
p941
aS'team family'
p942
aS'team dynamic'
p943
aS'zombie apocalypse'
p944
aS'alternate universe zombie apocalypse'
p945
aS'alternate universe'
p946
aS'alternate universe canon divergence'
p947
aS'alternate universe rock band'
p948
aS'preseries'
p949
aS'black pearl freeform'
p950
aa(lp951
S'friendship'
p952
aS'crossover'
p953
aS'humor'
p954
aS'kinda angsty'
p955
aS'briefly roommate'
p956
aa(lp957
S'family fluff'
p958
aS'post series'
p959
aS'poor parent need sleep'
p960
aS'heavy fluff'
p961
aa(lp962
S'angst'
p963
aS'rejection'
p964
aS'break'
p965
aa(lp966
S'unicorn'
p967
aS'100 word'
p968
aa(lp969
S'friend au'
p970
aS'alternate universe nonmagical'
p971
aS'humor'
p972
aa(lp973
S'seasonseries 03'
p974
aS'episode 8'
p975
aS'one without giant poking device'
p976
aS'chandler go lot emotion'
p977
aS'episode gone'
p978
aS'least scene'
p979
aS'totally gay'
p980
aS'super cute'
p981
aa(lp982
S'romance'
p983
aS'family'
p984
aa(lp985
S'fluff angst'
p986
aS'damaged chandler'
p987
aS'mention rest gang freeform'
p988
aS'angst hurtcomfort'
p989
aS'sweet summer child joey'
p990
aS'fluff'
p991
aS'friend lover'
p992
aa(lp993
S'murder mystery'
p994
aS'romance'
p995
aa(lp996
S'fluff humor'
p997
aS'season 5'
p998
aa(lp999
S'humor'
p1000
aa(lp1001
S'romance'
p1002
aS'shameless smut'
p1003
aa(lp1004
S'humor'
p1005
aS'friendship'
p1006
aS'set season 1'
p1007
aS'premondler'
p1008
aa(lp1009
S'heavy angst'
p1010
aS'loss parent'
p1011
aS'suicide'
p1012
aS'homelessness'
p1013
aS'parental abandonment'
p1014
aS'parental neglect'
p1015
aS'depressing canon'
p1016
aS'phoebecentric'
p1017
aS'song writing'
p1018
aS'emotional hurtcomfort'
p1019
aS'griefmourning'
p1020
aS'phoebe pov'
p1021
aS'postcanon'
p1022
aa(lp1023
S'awkward romance'
p1024
aS'romance'
p1025
aS'friendship'
p1026
aa(lp1027
S'episode s08e12 one joey date rachel'
p1028
aS'joey pov'
p1029
aS'introspection'
p1030
aS'fluff'
p1031
aS'angst'
p1032
aS'anxiety'
p1033
aS'developing feeling'
p1034
aS'ficlet'
p1035
aS'community commentfic'
p1036
aa(lp1037
S'established relationship'
p1038
aS'seasonseries 10'
p1039
aS'alternate universe canon divergence'
p1040
aS'fluff'
p1041
aS'implied sexual content'
p1042
aS'shower'
p1043
aS'flirting'
p1044
aS'nudity'
p1045
aS'community commentfic'
p1046
aS'rachel pov'
p1047
aS'ficlet'
p1048
aa(lp1049
S'based tv show friend'
p1050
aS'friend au'
p1051
aS'harry basically rachel'
p1052
aS'louis basically ross'
p1053
aS'liam basically chandler'
p1054
aS'niall basically joey'
p1055
aS'zayn basically monica'
p1056
aS'eleanor basically carol'
p1057
aS'caroline basically barry'
p1058
aS'come freeform'
p1059
aS'drama'
p1060
aS'thought fit character friend okay'
p1061
aS'sexual content'
p1062
aS'lot relationship drama'
p1063
aS'onagainoffagain relationship'
p1064
aS'marriage'
p1065
aS'divorce'
p1066
aS'cheating'
p1067
aS'top louis'
p1068
aS'bottom harry'
p1069
aa(lp1070
S'trigger warning'
p1071
aS'sexual assault'
p1072
aS'rape'
p1073
aS'hurtcomfort'
p1074
aS'angst'
p1075
aS'heavy angst'
p1076
aS'5x23'
p1077
aS'drinking'
p1078
aa(lp1079
S'romance'
p1080
aa(lp1081
S'fanart'
p1082
aS'digital art'
p1083
aS'icon'
p1084
aa(lp1085
S'valentine day'
p1086
aS'icon'
p1087
aS'fanart'
p1088
aS'digital art'
p1089
aa(lp1090
S'postcanon fixit'
p1091
aS'realization'
p1092
aS'developing relationship'
p1093
aS'angst happy ending'
p1094
aS'ross mature'
p1095
aS'slow burn'
p1096
aS'longdistance relationship'
p1097
aS'ambiguousopen ending'
p1098
aS'hopeful ending'
p1099
aS'postseries'
p1100
aS'background rossrachel'
p1101
aS'getting back together'
p1102
aa(lp1103
S'fluff'
p1104
aS'established relationship'
p1105
aS'reflection'
p1106
aS'alternate universe canon divergence'
p1107
aS'seasonseries 10'
p1108
aS'mild innuendo'
p1109
aS'flirting'
p1110
aS'everything beautiful nothing hurt'
p1111
aS'rachel pov'
p1112
aS'valentine day'
p1113
aa(lp1114
S'icon'
p1115
aS'fanart'
p1116
aS'digital art'
p1117
aa(lp1118
S'character come'
p1119
aS'relationship come'
p1120
aS'future fic'
p1121
aS'reunion'
p1122
aS'family reunion'
p1123
aS'original character'
p1124
aS'child character'
p1125
aS'originally posted fanfictionnet'
p1126
aa(lp1127
S'toothrotting fluff'
p1128
aS'alternate universe canon divergence'
p1129
aS'alternate universe postcanon'
p1130
aS'developing relationship'
p1131
aS'homesickness'
p1132
aS'joey pov'
p1133
aa(lp1134
S'love confession'
p1135
aS'kissing'
p1136
aS'fluff'
p1137
aS'mutual pining'
p1138
aS'lesbian sex'
p1139
aS'emotional hurtcomfort'
p1140
aa(lp1141
S'friendshiplove'
p1142
aa(lp1143
S'romance'
p1144
aS'fluff'
p1145
aa(lp1146
S'romance'
p1147
aS'fluff smut'
p1148
aa(lp1149
S'romance'
p1150
aS'smut'
p1151
aa(lp1152
S'angst'
p1153
aS'friendshiplove'
p1154
aa(lp1155
S'drama romance'
p1156
aa(lp1157
S'romance'
p1158
aS'smut'
p1159
aa(lp1160
S'romance'
p1161
aa(lp1162
S'romance'
p1163
aS'smut'
p1164
aa(lp1165
S'light angst'
p1166
aS'one fertility test'
p1167
aa(lp1168
a(lp1169
a(lp1170
S'alternate universe high school'
p1171
aS'humor'
p1172
aS'romance'
p1173
aS'friendship'
p1174
aa(lp1175
S'hand holding'
p1176
aS'gayness'
p1177
aS'dry humping'
p1178
aS'kissing'
p1179
aS'boy kissing'
p1180
aS'boy love'
p1181
aS'much love'
p1182
aS'sweet youll get cavity'
p1183
aS'im trash'
p1184
aS'someone help'
p1185
aa(lp1186
S'johnlock freeform'
p1187
aS'mystrade'
p1188
aS'friend au'
p1189
aS'friend pilot sherlock character'
p1190
aS'romance'
p1191
aS'comedy'
p1192
aS'like unilock'
p1193
aS'fluff'
p1194
aS'insecuremycroft'
p1195
aS'lonelysherlock'
p1196
aS'emotional hurtcomfort'
p1197
aS'time freeform'
p1198
aS'angst'
p1199
aS'greg ha crush'
p1200
aS'weight issue'
p1201
aS'obviously mycroft'
p1202
aS'kidlock'
p1203
aS'teenlock'
p1204
aS'lot mystrade trash'
p1205
aS'starring louis moffat'
p1206
aS'marriage'
p1207
aa(lp1208
S'prerelationship'
p1209
aa(lp1210
a(lp1211
a(lp1212
S'romance'
p1213
aS'accident'
p1214
aS'iron man freeform'
p1215
aS'pepperony freeform'
p1216
aS'tony stark freeform'
p1217
aS'pepper potts freeform'
p1218
aS'memory'
p1219
aS'memory loss'
p1220
aS'brain damage'
p1221
aS'iron man 3'
p1222
aS'iron man 2'
p1223
aS'marvel freeform'
p1224
aS'love'
p1225
aS'drink'
p1226
aS'mature freeform'
p1227
aa(lp1228
S'modern au'
p1229
aS'friend au'
p1230
aS'coffee shop au'
p1231
aS'additional tag added'
p1232
aa(lp1233
S'friend freeform'
p1234
aS'dinosaur freeform'
p1235
aS'paleontologist'
p1236
aS'animal'
p1237
aS'fear'
p1238
aS'velociraptor freeform'
p1239
aS'tyrannosaurus rex freeform'
p1240
aS'jurassic park freeform'
p1241
aS'helicopter'
p1242
aS'blood'
p1243
aS'gore'
p1244
aS'cry'
p1245
aS'vomit'
p1246
aS'sleep'
p1247
aS'scary'
p1248
aS'hugging'
p1249
aS'hunting'
p1250
aS'pack'
p1251
aS'prehistoric'
p1252
aS'nest'
p1253
aS'egg'
p1254
aS'triceratops'
p1255
aa(lp1256
S'alternate universe canon divergence'
p1257
aa(lp1258
S'alternate universe canon divergence'
p1259
aS'fluff'
p1260
aS'art'
p1261
aS'background relationship'
p1262
aa(lp1263
S'friend au'
p1264
aS'alternate universe modern setting'
p1265
aS'alternate universe power'
p1266
aS'laundry'
p1267
aS'episode s01e05 one east german laundry detergent'
p1268
aS'jercy freeform'
p1269
aS'naive jason'
p1270
aa(lp1271
S'tow proposal'
p1272
aS'insecure chandler'
p1273
aS'comforting monica'
p1274
aS'love lot ok'
p1275
aS'need know'
p1276
aa(lp1277
S'meditation'
p1278
aS'quirky phoebe'
p1279
aS'pov mike hannigan'
p1280
aS'postcanon'
p1281
aS'humor'
p1282
aS'ficlet'
p1283
aa(lp1284
S'episode s08e16 one joey tell rachel'
p1285
aS'unrequited love'
p1286
aS'heavy angst'
p1287
aS'extended metaphor'
p1288
aS'heartbreak'
p1289
aS'canon dialogue'
p1290
aS'everything beautiful everything hurt'
p1291
aS'ficlet'
p1292
aa(lp1293
a(lp1294
S'fluff smut'
p1295
aS'unplanned pregnancy'
p1296
aS'secret'
p1297
aS'friendship'
p1298
aa(lp1299
S'bad date'
p1300
aS'author ha never dated'
p1301
aS'crack'
p1302
aS'humour'
p1303
aS'terrifying parent'
p1304
aS'crack taken seriously'
p1305
aS'central perk gang ever stop nosy'
p1306
aa(lp1307
S'episode s08e14 one secret closet'
p1308
aS'guilt'
p1309
aS'angst'
p1310
aS'pining'
p1311
aS'denial feeling'
p1312
aS'feeling realization'
p1313
aS'introspection'
p1314
aS'falling love'
p1315
aS'joey pov'
p1316
aS'forbidden love'
p1317
aS'community commentfic'
p1318
aS'ficlet'
p1319
aS'background chandlermonica'
p1320
aa(lp1321
S'episode s08e14 one secret closet'
p1322
aS'guilt'
p1323
aS'angst'
p1324
aS'pining'
p1325
aS'worry'
p1326
aS'hurtcomfort'
p1327
aS'protectiveness'
p1328
aS'health scare'
p1329
aS'pregnancy'
p1330
aS'canon dialogue'
p1331
aS'introspection'
p1332
aS'joey pov'
p1333
aS'community commentfic'
p1334
aS'ficlet'
p1335
aa(lp1336
S'plot plotporn without plot'
p1337
aS'porn feeling'
p1338
aS'clothed sex'
p1339
aS'vaginal sex'
p1340
aS'wedding night'
p1341
aS'alternate universe canon divergence'
p1342
aS'everything beautiful nothing hurt'
p1343
aS'pov rachel'
p1344
aS'love'
p1345
aS'community commentfic'
p1346
aa(lp1347
S'alternate universe canon divergence'
p1348
aS'married couple'
p1349
aS'established relationship'
p1350
aS'nightmare'
p1351
aS'wa dream'
p1352
aS'season 10 starting 1003 never happened'
p1353
aS'screw canon'
p1354
aS'fixit sort'
p1355
aS'drabble'
p1356
aS'emotional hurtcomfort'
p1357
aS'fluffy ending'
p1358
aa(lp1359
S'ficlet'
p1360
aS'established relationship'
p1361
aS'alternate universe canon divergence'
p1362
aS'everything beautiful nothing hurt'
p1363
aS'drunk texting'
p1364
aS'silly'
p1365
aS'suggestive theme'
p1366
aS'mild innuendo'
p1367
aS'fluff'
p1368
aS'sweet joey'
p1369
aS'sappy'
p1370
aS'pov rachel'
p1371
aS'text last night'
p1372
aS'temporary separation'
p1373
aa(lp1374
S'background rosscharlie'
p1375
aS'episode s09e24 one barbados part 2'
p1376
aS'first kiss'
p1377
aS'fluff'
p1378
aS'everything beautiful nothing hurt'
p1379
aS'true love'
p1380
aS'anticipation'
p1381
aS'requited love'
p1382
aS'joey pov'
p1383
aS'ficlet'
p1384
aS'getting together'
p1385
aS'community commentfic'
p1386
aS'happy ending'
p1387
aa(lp1388
S'episode s09e21 one fertility test'
p1389
aS'infertility'
p1390
aS'bad news'
p1391
aS'angst'
p1392
aS'emotional hurtcomfort'
p1393
aS'sadness'
p1394
aS'supportive chandler'
p1395
aS'chandler pov'
p1396
aS'drabble'
p1397
aa(lp1398
S'alternate universe postcanon'
p1399
aS'future fic'
p1400
aS'toothrotting fluff'
p1401
aS'everything beautiful everything hurt'
p1402
aS'vacation'
p1403
aS'anniversary'
p1404
aS'married couple'
p1405
aS'romance'
p1406
aS'ficlet'
p1407
aS'community commentfic'
p1408
aS'nostalgia'
p1409
aa(lp1410
S'minor character death'
p1411
aa(lp1412
S'episode s08e15 one birthing video'
p1413
aS'guilt'
p1414
aS'angst'
p1415
aS'pining'
p1416
aS'regret'
p1417
aS'confession'
p1418
aS'introspection'
p1419
aS'canon dialogue'
p1420
aS'community commentfic'
p1421
aS'pov joey'
p1422
aS'ficlet'
p1423
aa(lp1424
S'alternate seasonseries 10'
p1425
aS'alternate universe canon divergence'
p1426
aS'calzones'
p1427
aS'nudity'
p1428
aS'silly'
p1429
aS'fluff humor'
p1430
aS'crack'
p1431
aS'text last night'
p1432
aS'implied sexual content'
p1433
aS'suggestive theme'
p1434
aS'suggestive ending'
p1435
aS'idiot love'
p1436
aS'beer'
p1437
aS'pov rachel'
p1438
aa(lp1439
S'fluff'
p1440
aS'drabble'
p1441
aS'episode s07e09 one candy'
p1442
aS'episode s05e08 one thanksgiving flashback'
p1443
aS'chandler smooth talker'
p1444
aa(lp1445
S'double drabble'
p1446
aS'sad'
p1447
aS'heavy angst'
p1448
aS'pining'
p1449
aS'denial feeling'
p1450
aS'unrequited love'
p1451
aS'secret crush'
p1452
aS'episode s08e13 one chandler take bath'
p1453
aS'joey pov'
p1454
aS'community commentfic'
p1455
aa(lp1456
S'episode s09e19 one rachel dream'
p1457
aS'unrequited love'
p1458
aS'angst'
p1459
aS'pining'
p1460
aS'hope'
p1461
aS'hopeful ending'
p1462
aS'canon dialogue'
p1463
aS'introspection'
p1464
aS'declaration love'
p1465
aS'epic speech'
p1466
aS'method acting'
p1467
aS'joey pov'
p1468
aa(lp1469
S'ficlet'
p1470
aS'episode s08e12 one joey date rachel'
p1471
aS'fluff'
p1472
aS'light angst'
p1473
aS'happy ending'
p1474
aS'flower'
p1475
aS'language flower'
p1476
aS'alternate universe postcanon'
p1477
aS'everything beautiful nothing hurt'
p1478
aS'lily'
p1479
aS'community commentfic'
p1480
aa(lp1481
S'background chandler bingmonica geller'
p1482
aS'alternate universe postcanon'
p1483
aS'fluff humor'
p1484
aS'innuendo'
p1485
aS'idiot love'
p1486
aS'silly'
p1487
aS'immaturity'
p1488
aS'stargazing'
p1489
aS'visiting friend'
p1490
aS'pov alternating'
p1491
aS'pov rachel'
p1492
aS'pov chandler'
p1493
aS'community commentfic'
p1494
aS'ficlet'
p1495
aa(lp1496
S'violence'
p1497
aS'crime criminal'
p1498
aS'friendship'
p1499
aS'brother'
p1500
aS'hurtcomfort'
p1501
aS'injury'
p1502
aS'major character injury'
p1503
aS'blood'
p1504
aS'fucked'
p1505
aS'secret identity'
p1506
aS'love'
p1507
aS'friendshiplove'
p1508
aS'brotherly love'
p1509
aS'smut'
p1510
aS'im sorry'
p1511
aS'really weird'
p1512
aS'past character death'
p1513
aS'faked death'
p1514
aS'lol really dead'
p1515
aS'original character death'
p1516
aS'bad guy made'
p1517
aS'additional tag added'
p1518
aa(lp1519
S'episode s08e17 one tea leaf'
p1520
aS'awkwardness'
p1521
aS'unrequited love'
p1522
aS'angst humor'
p1523
aS'friendship'
p1524
aS'pov alternating'
p1525
aS'bad lying'
p1526
aS'drabble'
p1527
aa(lp1528
S'alternate universe canon divergence'
p1529
aS'alternate seasonseries 10'
p1530
aS'fluff'
p1531
aS'sappy'
p1532
aS'implied sexual content'
p1533
aS'naked cuddling'
p1534
aS'love'
p1535
aS'joey pov'
p1536
aS'drabble'
p1537
aa(lp1538
S'minor dog character'
p1539
aS'animal companionship freeform'
p1540
aS'pet'
p1541
aS'emotional hurtcomfort'
p1542
aS'heavy angst'
p1543
aS'sad ending'
p1544
aS'depression'
p1545
aS'loneliness'
p1546
aS'guilt'
p1547
aS'joey pov'
p1548
aS'dog'
p1549
aS'episode s08e15 one birthing video'
p1550
aS'introspection'
p1551
aS'community commentfic'
p1552
aS'pining'
p1553
aS'unrequited love'
p1554
aa(lp1555
S'three time fic'
p1556
aS'angst'
p1557
aS'misunderstanding'
p1558
aS'angst happy ending'
p1559
aS'alternate universe canon divergence'
p1560
aS'fluffy ending'
p1561
aS'getting married'
p1562
aS'everything beautiful nothing hurt'
p1563
aS'canon dialogue'
p1564
aS'nickname'
p1565
aS'episode s08e16 one joey tell rachel'
p1566
aS'episode s09e20 one soap opera party'
p1567
aS'community commentfic'
p1568
aS'mention alcohol use'
p1569
aS'ficlet'
p1570
aa(lp1571
S'marriage proposal'
p1572
aS'toothrotting fluff'
p1573
aS'alternate universe postcanon'
p1574
aS'autumn'
p1575
aS'central park'
p1576
aS'walking'
p1577
aS'pov rachel'
p1578
aS'everything beautiful nothing hurt'
p1579
aS'established relationship'
p1580
aS'community commentfic'
p1581
aa(lp1582
S'hurtcomfort'
p1583
aS'emotional hurtcomfort'
p1584
aS'friendship'
p1585
aS'male friendship'
p1586
aS'cute'
p1587
aS'fluff'
p1588
aS'fluff angst'
p1589
aS'cuddling snuggling'
p1590
aS'forehead kiss'
p1591
aS'pouty joey'
p1592
aS'damn chandler'
p1593
aS'red bull fuelled'
p1594
aS'dont even know'
p1595
aS'still dont know tag'
p1596
aS'sorry sorry'
p1597
aa(lp1598
S'alternate universe postcanon'
p1599
aS'toothrotting fluff'
p1600
aS'minor surgery'
p1601
aS'anesthesia'
p1602
aS'based youtube video'
p1603
aS'everything beautiful nothing hurt'
p1604
aS'flirting'
p1605
aS'fluff humor'
p1606
aS'light angst'
p1607
aS'misunderstanding'
p1608
aS'joey pov'
p1609
aa(lp1610
S'extended metaphor'
p1611
aS'moving'
p1612
aS'episode s08e14 one secret closet'
p1613
aS'heartbreak'
p1614
aS'heavy angst'
p1615
aS'pining'
p1616
aS'joey pov'
p1617
aS'loneliness'
p1618
aS'drabble'
p1619
aa(lp1620
S'episode s09e23 one barbados part 1'
p1621
aS'friendship'
p1622
aS'past rossrachel'
p1623
aS'pining'
p1624
aS'crush'
p1625
aS'dork'
p1626
aS'denial feeling'
p1627
aS'humor'
p1628
aS'fluff'
p1629
aS'dialogueonly'
p1630
aS'background joeycharlie'
p1631
aS'love square'
p1632
aS'drabble'
p1633
aa(lp1634
S'toothrotting fluff'
p1635
aS'plotplotless'
p1636
aS'sleepy cuddle'
p1637
aS'clinging'
p1638
aS'new year'
p1639
aS'lazy morning'
p1640
aS'cuddling snuggling'
p1641
aS'established relationship'
p1642
aS'alternate seasonseries 10'
p1643
aS'introspection'
p1644
aS'affectionate joey'
p1645
aS'pov rachel'
p1646
aS'alternate universe canon divergence'
p1647
aS'ficlet'
p1648
aS'everything beautiful nothing hurt'
p1649
aa(lp1650
S'alternate universe modern setting'
p1651
aS'alternate universe indian setting'
p1652
aS'basically friend 2016 india'
p1653
aS'indian character'
p1654
aa(lp1655
S'alternate universe canon divergence'
p1656
aS'alternate seasonseries 10'
p1657
aS'moving'
p1658
aS'erotica'
p1659
aS'reference 702 tow rachel book'
p1660
aS'suggestive theme'
p1661
aS'implied sexual content'
p1662
aS'everything beautiful nothing hurt'
p1663
aS'dialogueonly'
p1664
aS'fluff'
p1665
aS'established relationship'
p1666
aS'drabble'
p1667
aa(lp1668
S'alternate universe postcanon'
p1669
aS'everything beautiful nothing hurt'
p1670
aS'toothrotting fluff'
p1671
aS'speech'
p1672
aS'marriage proposal'
p1673
aS'engagement'
p1674
aS'reference 812 tow joey date rachel'
p1675
aS'dialogueonly'
p1676
aS'drabble'
p1677
aa(lp1678
S'episode s06e17 one unagi'
p1679
aS'humor'
p1680
aS'slow dancing'
p1681
aS'kissing'
p1682
aS'failboats love'
p1683
aS'valentine day'
p1684
aS'present'
p1685
aS'bad romance freeform'
p1686
aS'monica pov'
p1687
aS'drabble'
p1688
aS'apology'
p1689
aa(lp1690
S'based tumblr post'
p1691
aS'snowball fight'
p1692
aS'fluff'
p1693
aS'first kiss'
p1694
aS'crush'
p1695
aS'ficlet'
p1696
aS'alternate seasonseries 04'
p1697
aS'chandler pov'
p1698
aS'introspection'
p1699
aS'extended metaphor'
p1700
aS'ambiguousopen ending'
p1701
aS'hopeful ending'
p1702
aa(lp1703
S'based tumblr post'
p1704
aS'alternate universe canon divergence'
p1705
aS'alternate seasonseries 09'
p1706
aS'postepisode s09e14 one blind date'
p1707
aS'accidental love confession'
p1708
aS'unrequited love'
p1709
aS'eventually requited love'
p1710
aS'pining'
p1711
aS'eventual happy ending'
p1712
aS'angst happy ending'
p1713
aS'dysfunctional rossrachel'
p1714
aS'friendshiplove'
p1715
aS'winter'
p1716
aS'snowball fight'
p1717
aS'introspection'
p1718
aS'unresolved sexual tension'
p1719
aS'unresolved romantic tension'
p1720
aS'confusion'
p1721
aS'relationship advice'
p1722
aS'background chandlermonica'
p1723
aS'background rosscharlie'
p1724
aS'pov alternating'
p1725
aS'developing relationship'
p1726
aS'mutual pining'
p1727
aS'idiot love'
p1728
aS'chandler ship'
p1729
aS'resolved sexual tension'
p1730
aS'innuendo'
p1731
aS'implied sexual content'
p1732
aS'conversation'
p1733
aa(lp1734
S'threesome'
p1735
aS'threesome fmm'
p1736
aS'ot3'
p1737
aS'bisexuality'
p1738
aS'bisexual character'
p1739
aS'bisexual male character'
p1740
aS'internalized homophobia'
p1741
aS'friend benefit'
p1742
aS'first time'
p1743
aS'screenplayscript format'
p1744
aS'comedy'
p1745
aa(lp1746
S'alternate universe postcanon'
p1747
aS'established relationship'
p1748
aS'everything beautiful nothing hurt'
p1749
aS'fluff'
p1750
aS'christmas'
p1751
aS'christmas present'
p1752
aS'surprise ending'
p1753
aS'drabble'
p1754
aa(lp1755
S'christmas'
p1756
aS'christmas present'
p1757
aS'book'
p1758
aS'alternate universe canon divergence'
p1759
aS'alternate seasonseries 10'
p1760
aS'fluff'
p1761
aS'nostalgia'
p1762
aS'pov rachel'
p1763
aS'drabble'
p1764
aS'humor'
p1765
aa(lp1766
S'based tumblr post'
p1767
aS'alternate universe canon divergence'
p1768
aS'alternate seasonseries 10'
p1769
aS'meeting parent'
p1770
aS'family'
p1771
aS'fluff'
p1772
aS'christmas'
p1773
aS'christmas dinner'
p1774
aS'italianamerican family'
p1775
aS'toothrotting fluff'
p1776
aS'everything beautiful nothing hurt'
p1777
aS'established relationship'
p1778
aS'humor'
p1779
aa(lp1780
S'plot plotporn without plot'
p1781
aS'episode s07e10 one holiday armadillo'
p1782
aS'episode tag'
p1783
aS'santa suit'
p1784
aS'sexual roleplay'
p1785
aS'spanking'
p1786
aS'vaginal sex'
p1787
aS'riding'
p1788
aS'fluff smut'
p1789
aS'humor'
p1790
aS'sappy ending'
p1791
aS'christmas eve'
p1792
aS'christmas smut'
p1793
aa(lp1794
a(lp1795
S'slow build'
p1796
aS'fantasizing'
p1797
aS'prolonged foreplay'
p1798
aS'straddling'
p1799
aS'kissing'
p1800
aS'licking'
p1801
aS'blowjob'
p1802
aa(lp1803
S'plot plotporn without plot'
p1804
aS'fluff smut'
p1805
aS'vaginal sex'
p1806
aS'alternate seasonseries 10'
p1807
aS'alternate universe canon divergence'
p1808
aS'huddling warmth'
p1809
aS'winter'
p1810
aS'cold weather'
p1811
aS'based tumblr post'
p1812
aS'established relationship'
p1813
aa(lp1814
S'alternate universe canon divergence'
p1815
aS'alternate universe postcanon'
p1816
aS'established relationship'
p1817
aS'parental joey'
p1818
aS'bedtime story'
p1819
aS'fluff humor'
p1820
aS'sassy emma'
p1821
aS'silly'
p1822
aS'everything beautiful nothing hurt'
p1823
aS'drabble'
p1824
aa(lp1825
S'episode s08e12 one joey date rachel'
p1826
aS'joey pov'
p1827
aS'realization'
p1828
aS'unresolved romantic tension'
p1829
aS'unresolved sexual tension'
p1830
aS'angst'
p1831
aS'drabble'
p1832
aa(lp1833
S'jandler freeform'
p1834
aS'chandlerjoey'
p1835
aS'joeychandler freeform'
p1836
aS'choey freeform'
p1837
aa(lp1838
S'based tumblr post'
p1839
aS'alternate seasonseries 10'
p1840
aS'alternate universe canon divergence'
p1841
aS'everything beautiful nothing hurt'
p1842
aS'established relationship'
p1843
aS'christmas fluff'
p1844
aS'mistletoe'
p1845
aS'silly'
p1846
aS'kissing'
p1847
aS'ficlet'
p1848
aS'slightly suggestive ending'
p1849
aa(lp1850
a(lp1851
S'episode s08e23 one rachel ha baby'
p1852
aS'background rossrachel'
p1853
aS'doomed relationship'
p1854
aS'disapproval'
p1855
aS'angst'
p1856
aS'pining'
p1857
aS'unrequited love'
p1858
aS'drabble'
p1859
aa(lp1860
S'episode s08e15 one birthing video'
p1861
aS'friendship'
p1862
aS'supportive phoebe'
p1863
aS'pining'
p1864
aS'angst'
p1865
aS'guilt'
p1866
aS'helpful phoebe'
p1867
aS'sadness'
p1868
aS'depression'
p1869
aS'phoebe pov'
p1870
aa(lp1871
S'episode s09e01 one one proposes'
p1872
aS'chandler pov'
p1873
aS'angst'
p1874
aS'sympathy'
p1875
aS'heartbreak'
p1876
aS'accidental proposal'
p1877
aS'background chandlermonica'
p1878
aS'introspection'
p1879
aS'drabble'
p1880
aa(lp1881
S'established relationship'
p1882
aS'established sherlock holmesjohn watson'
p1883
aS'marriage proposal'
p1884
aS'friend crossover'
p1885
aS'sorta ha element friend'
p1886
aS'screenplayscript format'
p1887
aS'sitcom'
p1888
aS'sitcomlock'
p1889
aS'romantic comedy'
p1890
aS'romance'
p1891
aS'domestic fluff'
p1892
aS'john bit good'
p1893
aS'tag getting hand'
p1894
aa(lp1895
S'twin'
p1896
aS'christmas party'
p1897
aS'love'
p1898
aS'family reunion'
p1899
aS'cousin'
p1900
aS'aunt uncle'
p1901
aS'christmas'
p1902
aS'christmas fluff'
p1903
aa(lp1904
S'alternate universe canon divergence'
p1905
aS'alternate seasonseries 10'
p1906
aS'everything beautiful nothing hurt'
p1907
aS'fluff'
p1908
aS'hint smut'
p1909
aS'making'
p1910
aS'fondling'
p1911
aS'second base'
p1912
aS'groping'
p1913
aS'winter'
p1914
aS'carriage ride'
p1915
aS'pov rachel'
p1916
aS'established relationship'
p1917
aS'dating'
p1918
aS'romance'
p1919
aa(lp1920
S'alternate seasonseries 10'
p1921
aS'everything beautiful nothing hurt'
p1922
aS'alternate universe canon divergence'
p1923
aS'established relationship'
p1924
aS'toothrotting fluff'
p1925
aS'background chandlermonica mikephoebe'
p1926
aS'joey pov'
p1927
aS'ross actually fine'
p1928
aS'background charlieross breakup'
p1929
aS'humor'
p1930
aS'flirting'
p1931
aS'mildly suggestive dialogue'
p1932
aS'new year eve'
p1933
aS'kissing'
p1934
aa(lp1935
S'alternate seasonseries 10'
p1936
aS'alternate universe canon divergence'
p1937
aS'christmas fluff'
p1938
aS'christmas cooky'
p1939
aS'baking'
p1940
aS'bad cooking'
p1941
aS'fluff humor'
p1942
aS'supportive joey'
p1943
aS'pov rachel'
p1944
aS'ficlet'
p1945
aS'based tumblr post'
p1946
aS'established relationship'
p1947
aa(lp1948
S'alternate seasonseries 10'
p1949
aS'everything beautiful nothing hurt'
p1950
aS'toothrotting fluff'
p1951
aS'love'
p1952
aS'established relationship'
p1953
aS'joey pov'
p1954
aS'drabble'
p1955
aa(lp1956
S'friendship'
p1957
aS'humor'
p1958
aS'christmas'
p1959
aS'christmas music'
p1960
aS'fluff'
p1961
aS'ficlet'
p1962
aS'mention stalking'
p1963
aS'early canon'
p1964
aS'santa claus freeform'
p1965
aa(lp1966
S'episode s08e12 one joey date rachel'
p1967
aS'flirting'
p1968
aS'fluff'
p1969
aS'light angst'
p1970
aS'angsty ending'
p1971
aS'joey pov'
p1972
aS'drabble'
p1973
aa(lp1974
S'episode s08e16 one joey tell rachel'
p1975
aS'introspection'
p1976
aS'angst'
p1977
aS'falling love'
p1978
aS'love confession'
p1979
aS'drabble'
p1980
aS'joey pov'
p1981
aa(lp1982
S'baby'
p1983
aS'krog'
p1984
aa(lp1985
S'pov rachel'
p1986
aS'winter'
p1987
aS'cold weather'
p1988
aS'glove'
p1989
aS'domestic fluff'
p1990
aS'everything beautiful nothing hurt'
p1991
aS'alternate seasonseries 10'
p1992
aS'alternate universe canon divergence'
p1993
aS'mildly suggestive dialogue'
p1994
aS'family fluff'
p1995
aS'ficlet'
p1996
aS'based tumblr post'
p1997
aa(lp1998
S'cuddling snuggling'
p1999
aS'hurtcomfort'
p2000
aS'friendship'
p2001
aS'friendshiplove'
p2002
aS'forehead kiss'
p2003
aS'spooning'
p2004
aS'joey adorable'
p2005
aS'fight'
p2006
aS'confession'
p2007
aS'wrote instead sleeping'
p2008
aa(lp2009
S'postcanon'
p2010
aS'alternate universe postcanon'
p2011
aS'embarrassment'
p2012
aS'misunderstanding'
p2013
aS'implied sexual content'
p2014
aS'massage'
p2015
aS'family'
p2016
aS'humor'
p2017
aS'pov alternating'
p2018
aS'pov erica bing'
p2019
aS'pov chandler'
p2020
aa(lp2021
S'plot plotporn without plot'
p2022
aS'episode s08e14 one secret closet'
p2023
aS'masturbation'
p2024
aS'guilt'
p2025
aS'heavy angst'
p2026
aS'sexual fantasy'
p2027
aS'pining'
p2028
aS'falling love'
p2029
aS'heartbreak'
p2030
aS'loneliness'
p2031
aS'wet dream'
p2032
aS'erotica'
p2033
aa(lp2034
S'boy love'
p2035
aS''
p2036
aS'love'
p2037
aS'one stoned guy'
p2038
aS'friend freeform'
p2039
aS'wa lazy idea'
p2040
aS'teen'
p2041
aS'world may never know'
p2042
aa(lp2043
S'episode s09e13 one monica sings'
p2044
aS'pov rachel'
p2045
aS'dysfunctional rossrachel'
p2046
aS'subtext'
p2047
aS'fluff angst'
p2048
aS'angst happy ending'
p2049
aS'friendshiplove'
p2050
aS'supportive joey'
p2051
aS'moving'
p2052
aS'drabble'
p2053
aa(lp2054
S'episode s08e24 one rachel ha baby'
p2055
aS'pov rachel'
p2056
aS'accidental proposal'
p2057
aS'unrequited love'
p2058
aS'angst'
p2059
aS'single parent'
p2060
aS'loneliness'
p2061
aS'fear'
p2062
aS'emotional hurtcomfort'
p2063
aS'friendshiplove'
p2064
aS'misunderstanding'
p2065
aS'drabble'
p2066
aa(lp2067
S'rms titanic'
p2068
aS'hurtcomfort'
p2069
aS'emotional hurtcomfort'
p2070
aS'cry'
p2071
aS'cuddling snuggling'
p2072
aS'wrote instead sleeping'
p2073
aS'platonic cuddling'
p2074
aS'wa thinking'
p2075
aS'tag'
p2076
aS'fluff'
p2077
aS'napping'
p2078
aS'forehead kiss'
p2079
aS'rachel ship'
p2080
aS'doe janice'
p2081
aS'tbh'
p2082
aa(lp2083
S'kissing'
p2084
aS'hurtcomfort'
p2085
aS'emotional hurtcomfort'
p2086
aS'new year'
p2087
aS'door'
p2088
aS'jealousy'
p2089
aS'getting together'
p2090
aS'tag'
p2091
aS'fluff'
p2092
aS'mild language'
p2093
aS'fluff angst'
p2094
aS'joey teenager'
p2095
aS'sense probs horny fuck'
p2096
aa(lp2097
S'plot plotporn without plot'
p2098
aS'food kink'
p2099
aS'anniversary'
p2100
aS'anniversary sex'
p2101
aS'slight foot fetish'
p2102
aS'cunnilingus'
p2103
aS'blow job'
p2104
aS'fluff'
p2105
aS'alternate universe canon divergence'
p2106
aS'oral sex'
p2107
aS'porn feeling'
p2108
aa(lp2109
S'alternate universe canon divergence'
p2110
aS'everything beautiful nothing hurt'
p2111
aS'fluff'
p2112
aS'toothrotting fluff'
p2113
aS'wedding'
p2114
aS'honeymoon'
p2115
aS'joey pov'
p2116
aS'drabble'
p2117
aa(lp2118
S'alternate universe canon divergence'
p2119
aS'alternate universe postcanon'
p2120
aS'everything beautiful nothing hurt'
p2121
aS'wedding'
p2122
aS'fluff'
p2123
aS'toothrotting fluff'
p2124
aS'everyone cry'
p2125
aS'ficlet'
p2126
aS'established relationship'
p2127
aS'background chandlermonica'
p2128
aS'background phoebemike'
p2129
aS'background rossofc'
p2130
aa(lp2131
a(lp2132
S'friendship'
p2133
aS'friendshiplove'
p2134
aS'friend lover'
p2135
aS'hurtcomfort'
p2136
aS'emotional hurtcomfort'
p2137
aS'hug'
p2138
aS'cuddling snuggling'
p2139
aS'adorable'
p2140
aS'dont even know'
p2141
aS'tag'
p2142
aS'fluff'
p2143
aS'fluff'
p2144
aS'cute'
p2145
aa(lp2146
S'episode s08e14 one secret closet'
p2147
aS'pining'
p2148
aS'angst'
p2149
aS'heartbreak'
p2150
aS'selfsacrificial joey'
p2151
aS'joey pov'
p2152
aS'drabble'
p2153
aa(lp2154
S'episode s09e20 one soap opera party'
p2155
aS'fluff'
p2156
aS'crush'
p2157
aS'requited love'
p2158
aS'rachel pov'
p2159
aS'drabble'
p2160
aa(lp2161
S'episode s09e24 one barbados part 2'
p2162
aS'joey pov'
p2163
aS'light angst'
p2164
aS'fluff'
p2165
aS'angst happy ending'
p2166
aS'everything beautiful nothing hurt'
p2167
aS'drabble'
p2168
aa(lp2169
S'hurtcomfort'
p2170
aS'emotional hurtcomfort'
p2171
aS'break'
p2172
aS'friendship'
p2173
aS'friendshiplove'
p2174
aa(lp2175
S'probably ooc tbh'
p2176
aa(lp2177
S'plot plotporn without plot'
p2178
aS'porn feeling'
p2179
aS'phone sex'
p2180
aS'mutual masturbation'
p2181
aS'dirty talk'
p2182
aS'sexual fantasy'
p2183
aS'separation'
p2184
aS'longdistance relationship'
p2185
aS'established relationship'
p2186
aS'alternate universe canon divergence'
p2187
aS'light angst'
p2188
aa(lp2189
S'halloween'
p2190
aS'trick treating'
p2191
aS'seasonseries 10'
p2192
aS'infertility'
p2193
aS'fertility issue'
p2194
aS'adoption'
p2195
aS'angst'
p2196
aS'sadness'
p2197
aS'poignant'
p2198
aS'emotional hurtcomfort'
p2199
aS'supportive chandler'
p2200
aS'chandler pov'
p2201
aS'ficlet'
p2202
aa(lp2203
S'postcanon'
p2204
aS'alternate universe postcanon'
p2205
aS'monicacentric'
p2206
aS'monica pov'
p2207
aS'childhood obesity'
p2208
aS'parental favoritism'
p2209
aS'eating disorder'
p2210
aS'food issue'
p2211
aS'weight issue'
p2212
aS'perfectionism'
p2213
aS'selfesteem issue'
p2214
aS'supportive chandler'
p2215
aS'angst'
p2216
aS'drabble'
p2217
aa(lp2218
S'friendship'
p2219
aS'hurtcomfort'
p2220
aS'sickfic'
p2221
aS'first fanfic'
p2222
aS'dont even know'
p2223
aS'friendshiplove'
p2224
aa(lp2225
S'episode s08e15 one birthing video'
p2226
aS'pining'
p2227
aS'heavy angst'
p2228
aS'heartbreak'
p2229
aS'food metaphor love'
p2230
aS'food issue'
p2231
aS'depression'
p2232
aS'joey pov'
p2233
aS'possible eating disorder trigger'
p2234
aS'mention alcohol abuse'
p2235
aS'drabble'
p2236
aa(lp2237
S'episode s08e16 one joey tell rachel'
p2238
aS'ross pov'
p2239
aS'friendship'
p2240
aS'awkwardness'
p2241
aS'realization'
p2242
aa(lp2243
S'future fic'
p2244
aS'alternate universe canon divergence'
p2245
aS'alternate universe postcanon'
p2246
aS'postcanon'
p2247
aS'marriage proposal'
p2248
aS'engagement'
p2249
aS'fluff'
p2250
aS'everything beautiful nothing hurt'
p2251
aS'light angst'
p2252
aS'happy ending'
p2253
aa(lp2254
S'episode s10e03 one ross tan'
p2255
aS'smut'
p2256
aS'fixit'
p2257
aS'riding'
p2258
aS'first time'
p2259
aS'porn feeling'
p2260
aa(lp2261
S'fanart'
p2262
aS'digital art'
p2263
aS'picspam'
p2264
aS'photoset'
p2265
aS'lyric picspam'
p2266
aS'ship picspam'
p2267
aS'rachel pov'
p2268
aa(lp2269
S'fanart'
p2270
aS'digital art'
p2271
aS'photoset'
p2272
aS'picspam'
p2273
aS'ship picspam'
p2274
aS'lyric picspam'
p2275
aa(lp2276
S'fluff'
p2277
aS'humor'
p2278
aS'halloween'
p2279
aS'arachnophobia'
p2280
aS'silly'
p2281
aS'alternate seasonseries 10'
p2282
aS'alternate universe canon divergence'
p2283
aS'established relationship'
p2284
aS'ficlet'
p2285
aa(lp2286
S'episode s08e16 one joey tell rachel'
p2287
aS'friendship'
p2288
aS'guilt'
p2289
aS'angst'
p2290
aS'pining'
p2291
aS'awkwardness'
p2292
aS'supportive monica'
p2293
aS'monica pov'
p2294
aa(lp2295
S'postcanon'
p2296
aS'bitterness'
p2297
aS'heartbreak'
p2298
aS'onesided relationship'
p2299
aS'angst'
p2300
aS'everything hurt'
p2301
aS'unhappy ending'
p2302
aS'joey pov'
p2303
aS'ficlet'
p2304
aa(lp2305
S'episode s10e03 one ross tan'
p2306
aS'episode tag'
p2307
aS'breakup'
p2308
aS'heartbreak'
p2309
aS'angst'
p2310
aS'poignant'
p2311
aS'drabble'
p2312
aa(lp2313
S'sickfic'
p2314
aS'coughing'
p2315
aS'fever'
p2316
aS'sneezing'
p2317
aS'prompt fill'
p2318
aa(lp2319
S'episode s08e11 one ross step forward'
p2320
aS'unresolved sexual tension'
p2321
aS'temptation'
p2322
aS'pregnancy hormone'
p2323
aS'joey pov'
p2324
aS'drabble'
p2325
aa(lp2326
S'fluff'
p2327
aS'toothrotting fluff'
p2328
aS'everything beautiful nothing hurt'
p2329
aS'established relationship'
p2330
aS'postcanon'
p2331
aS'future fic'
p2332
aS'rachel pov'
p2333
aa(lp2334
S'fanart'
p2335
aS'digital art'
p2336
aS'picspam'
p2337
aS'photoset'
p2338
aS'ship picspam'
p2339
aS'lyric picspam'
p2340
aS'season'
p2341
aa(lp2342
S'episode s08e14 one secret closet'
p2343
aS'episode tag'
p2344
aS'chandler pov'
p2345
aS'supportive chandler'
p2346
aS'guilt'
p2347
aS'angst'
p2348
aS'pining'
p2349
aa(lp2350
S'episode s08e12 one joey date rachel'
p2351
aS'pining'
p2352
aS'anxiety'
p2353
aS'angst'
p2354
aS'drabble'
p2355
aa(lp2356
S'set 814 one secret closet'
p2357
aS'monicacentric'
p2358
aS'obsessivecompulsive disorder'
p2359
aS'perfectionism'
p2360
aS'selfesteem issue'
p2361
aS'angst'
p2362
aS'selfreflection'
p2363
aS'drabble'
p2364
aa(lp2365
S'episode s07e17 one cheap wedding dress'
p2366
aS'fluff'
p2367
aS'drabble'
p2368
aS'monica pov'
p2369
aa(lp2370
S'episode s08e16 one joey tell rachel'
p2371
aS'insecurity'
p2372
aS'light angst'
p2373
aS'chandler pov'
p2374
aS'drabble'
p2375
aa(lp2376
S'plot plotporn without plot'
p2377
aS'foot fetish'
p2378
aS'foot massage'
p2379
aS'foot job'
p2380
aS'come eating'
p2381
aS'cunnilingus'
p2382
aS'emma show end'
p2383
aS'domestic'
p2384
aS'seasonseries 10'
p2385
aS'alternate universe canon divergence'
p2386
aS'fluff'
p2387
aa(lp2388
S'mutual pining'
p2389
aS'love confession'
p2390
aS'postfinale'
p2391
aS'idfk man happened'
p2392
aS'gay'
p2393
aa(lp2394
S'episode s08e13 one chandler take bath'
p2395
aS'pining'
p2396
aS'angst'
p2397
aS'drabble'
p2398
aa(lp2399
S'plot plotporn without plot'
p2400
aS'porn feeling'
p2401
aS'masturbation'
p2402
aS'sexual fantasy'
p2403
aS'angst'
p2404
aS'guilt'
p2405
aS'pining'
p2406
aS'seasonseries 08'
p2407
aa(lp2408
S'fluff'
p2409
aS'angst'
p2410
aS'break'
p2411
aS'makeup'
p2412
aS'romance'
p2413
aS'happy ending'
p2414
aS'community fandomhits'
p2415
aa(lp2416
S'mention pornography'
p2417
aS'mention odd fetish'
p2418
aS'friendship'
p2419
aS'humor'
p2420
aS'episode tag'
p2421
aS'episode s09e04 one shark'
p2422
aa(lp2423
S'episode s08e13 one chandler take bath'
p2424
aS'fluff angst'
p2425
aS'pining'
p2426
aS'bittersweet'
p2427
aS'denial'
p2428
aS'drabble'
p2429
aa(lp2430
S'episode s08e16 one joey tell rachel'
p2431
aS'unrequited love'
p2432
aS'angst'
p2433
aS'supportive joey'
p2434
aS'drabble'
p2435
aa(lp2436
S'episode s09e19 one rachel dream'
p2437
aS'fluff'
p2438
aS'rachel pov'
p2439
aS'joeys epic speech'
p2440
aS'drabble'
p2441
aa(lp2442
S'episode s08e14 one secret closet'
p2443
aS'pining'
p2444
aS'angst'
p2445
aS'guilt'
p2446
aS'drabble'
p2447
aa(lp2448
S'episode s10e01 one joey rachel kiss'
p2449
aS'fluff'
p2450
aS'toothrotting fluff'
p2451
aS'everything beautiful nothing hurt'
p2452
aS'drabble'
p2453
aa(lp2454
S'fanart'
p2455
aS'digital art'
p2456
aS'picspam'
p2457
aS'photoset'
p2458
aS'lyric picspam'
p2459
aS'ship picspam'
p2460
aa(lp2461
S'fanart'
p2462
aS'digital art'
p2463
aS'picspam'
p2464
aS'photoset'
p2465
aS'lyric picspam'
p2466
aS'ship picspam'
p2467
aa(lp2468
S'episode s05e08 one thanksgiving flashback'
p2469
aS'fluff'
p2470
aS'drabble'
p2471
aa(lp2472
S'ross pov'
p2473
aS'mention drunkenness'
p2474
aS'background racheljoey'
p2475
aS'background rosscharlie'
p2476
aS'episode s10e02 one ross fine'
p2477
aS'drabble'
p2478
aa(lp2479
S'episode s08e15 one birthing video'
p2480
aS'angst'
p2481
aS'pining'
p2482
aa(lp2483
S'fanart'
p2484
aS'digital art'
p2485
aS'aesthetic post'
p2486
aS'ship aesthetic'
p2487
aS'picspam'
p2488
aS'photoset'
p2489
aa(lp2490
S'fanart'
p2491
aS'digital art'
p2492
aS'gifset'
p2493
aa(lp2494
S'video'
p2495
aS'fandom video'
p2496
aS'multifandom video'
p2497
aS'video'
p2498
aS'video format'
p2499
aS'youtube'
p2500
aa(lp2501
S'chandler pov'
p2502
aS'introspection'
p2503
aS'mostly fluff'
p2504
aS'bit angst'
p2505
aS'episode s07ep24 one chandler monicas wedding'
p2506
aS'drabble'
p2507
aa(lp2508
S'episode s10e02 one ross fine'
p2509
aS'angst'
p2510
aS'guilt'
p2511
aS'drunkenness'
p2512
aS'joey good friend'
p2513
aS'selfsacrificial joey'
p2514
aS'drabble'
p2515
aa(lp2516
S'icon'
p2517
aS'digital art'
p2518
aS'graphic'
p2519
aS'fanart'
p2520
aa(lp2521
S'pining'
p2522
aS'angst'
p2523
aS'episode s08e12 one joey date rachel'
p2524
aS'drabble'
p2525
aa(lp2526
S'fluff'
p2527
aS'drabble'
p2528
aS'episode s05e01 one ross say rachel'
p2529
aa(lp2530
S'bi chandler'
p2531
aS'bisexual chandler'
p2532
aS'biromantic chandler'
p2533
aS'coming'
p2534
aS'gay erica'
p2535
aS'lesbian erica'
p2536
aS'fatherdaughter relationship'
p2537
aS'fatherdaughter moment'
p2538
aS'mention selfloathing'
p2539
aS'bisexuality'
p2540
aS'gay'
p2541
aS'lesbian'
p2542
aS'fatherdaughter relationship'
p2543
aS'fatherdaughter moment'
p2544
aS'biromantic'
p2545
aS'monica charles mentioned'
p2546
aS'werent important enough add character list'
p2547
aa(lp2548
S'femslash'
p2549
aS'love pairing one care abt'
p2550
aS'monica cheat chandler rachel beware'
p2551
aa(lp2552
S'modern au'
p2553
aS'friend au'
p2554
aS'coffee shop au'
p2555
aS'additional tag added'
p2556
aa(lp2557
S'alternate universe coffee shop cafu00e9s'
p2558
aS'alternate universe friend'
p2559
aS'slow burn'
p2560
aS'really slow burn'
p2561
aS'talkin snail pace'
p2562
aa(lp2563
S'au'
p2564
aS'alternate universe'
p2565
aa(lp2566
S'alternate universe fusion'
p2567
aa(lp2568
S'original character'
p2569
aS'original fiction'
p2570
aS'original freeform'
p2571
aa(lp2572
S'coming age'
p2573
aS'gay'
p2574
aS'best friend'
p2575
aS'learning new love'
p2576
aS'first time'
p2577
aa(lp2578
a(lp2579
S'fatherson relationship'
p2580
aS'bisexuality'
p2581
aS'bisexual chandler bing'
p2582
aa(lp2583
S'fluffiness'
p2584
aS'mondler'
p2585
aS'one thanksgiving'
p2586
aa(lp2587
S'fluff smut'
p2588
aS'fluff'
p2589
aS'eventual smut'
p2590
aa(lp2591
a(lp2592
S'fluff'
p2593
aS'lot fluff'
p2594
aS'forever bitter racheljoey okay'
p2595
aa(lp2596
S'nonsexual age play'
p2597
aS'pacifier'
p2598
aS'fluff angst'
p2599
aS'teddy bear'
p2600
aa(lp2601
S'character death'
p2602
aS'wake funeral'
p2603
aS'griefmourning'
p2604
aS'songfic'
p2605
aS'song lyric'
p2606
aS'based song'
p2607
aS'postcanon'
p2608
aa(lp2609
S'nonsexual age play'
p2610
aS'fluff'
p2611
aa(lp2612
S'really gay joey tribbiani'
p2613
aS'phoebe longs rachel'
p2614
aS'suicide attempt'
p2615
aS'rachel bisexual'
p2616
aS'phoebe'
p2617
aS'ross pretty straight though'
p2618
aS'monica straight'
p2619
aS'chandler also straight'
p2620
aS'joey gay'
p2621
aS'chandler kinda hurt joey say doesnt like'
p2622
aS'came dream'
p2623
aS'im preston btw'
p2624
aS'im bad tagging'
p2625
aa(lp2626
S'boy love freeform'
p2627
aS'vocu00ea sabia'
p2628
aS'youtubers freeform'
p2629
aS'know'
p2630
aa(lp2631
S'postcanon'
p2632
aS'beware occasional awkward drabble'
p2633
aa(lp2634
S'friendship'
p2635
aS'family'
p2636
aS'humor'
p2637
aS'baby'
p2638
aa(lp2639
S'fanvids'
p2640
aS'meta'
p2641
aS'work contains fan fandom'
p2642
aS'video format streaming'
p2643
aS'download available'
p2644
aS'multifandom vid'
p2645
aS'fandom history'
p2646
aS'original footage'
p2647
aa(lp2648
S'poetry'
p2649
aS'canon compliant'
p2650
aa(lp2651
S'anniversary'
p2652
aS'fluff'
p2653
aS'established relationship'
p2654
aa(lp2655
S'friendsau'
p2656
aS'angst'
p2657
aS'fighting'
p2658
aS'breakup'
p2659
aS'niall rachel'
p2660
aS'zayn ross'
p2661
aS'lilo pheobe monica'
p2662
aS'harry joeychandler rolled one'
p2663
aS'bressie mark'
p2664
aS'gigi girl zaynross sleep'
p2665
aa(lp2666
a(lp2667
S'alternate universe superheroessuperpowers'
p2668
aS'hero'
p2669
aS'villain'
p2670
aS'hero villain'
p2671
aS'antihero'
p2672
aa(lp2673
S'alternate ending'
p2674
aS'alternate universe'
p2675
aS'wa dream'
p2676
aS'homeless phoebe'
p2677
aS'prostitution'
p2678
aS'forced prostitution'
p2679
aS'pimp mike'
p2680
aS'friend'
p2681
aS'stalker phoebe'
p2682
aS'delusion'
p2683
aS'delusional phoebe'
p2684
aS'living park'
p2685
aS'heavy angst'
p2686
aS'angst feel'
p2687
aS'could ended'
p2688
aS'broke beta seriously'
p2689
aS'cried'
p2690
aS'like baby'
p2691
aS'based tumblr post duh'
p2692
aa(lp2693
S'future friend'
p2694
aa(lp2695
S'chair sex'
p2696
aS'kissing'
p2697
aS'friend benefit'
p2698
aa(lp2699
S'boy kissing'
p2700
aS'drunken kissing'
p2701
aa(lp2702
a(lp2703
S'illness'
p2704
aS'fluff'
p2705
aS'seasonseries 01'
p2706
aS'femslash february'
p2707
aS'drabble'
p2708
aS'established relationship'
p2709
aS'domestic'
p2710
aa(lp2711
S'crush'
p2712
aS'new'
p2713
aS'neighbor'
p2714
aS'joey love chandler'
p2715
aS'chandler monica engaged'
p2716
aS'unrequited crush'
p2717
aa(lp2718
S'international fanworks day'
p2719
aS'international fanworks day 2016'
p2720
aS'ifd'
p2721
aS'friend freeform'
p2722
aS'met mother reference'
p2723
aa(lp2724
S'international fanworks day 2016'
p2725
aS'friend freeform'
p2726
aS'sam freeform'
p2727
aS'dean freeform'
p2728
aS'theme song'
p2729
aS'fan freakout'
p2730
aa(lp2731
S'girlgirl'
p2732
aS'gay'
p2733
aS'angst'
p2734
aS'fluff'
p2735
aS'implied smut'
p2736
aS'one rachel isnt straight'
p2737
aS'phoebe get together'
p2738
aS'ross get deserves'
p2739
aS'ross bias obvious'
p2740
aa(lp2741
a(lp2742
S'alternate universe fantasy'
p2743
aS'fantasy'
p2744
aS'magical realism'
p2745
aa(lp2746
S'crossover fandom fusion'
p2747
aS'supernaturalkingsman'
p2748
aS'dean bamf'
p2749
aS'first day job'
p2750
aS'dean merlin meet'
p2751
aS'disappointing lack monster'
p2752
aS'death doe disturb dean'
p2753
aS'bodybag incident'
p2754
aS'drabbles'
p2755
aS'occasional slash likely'
p2756
aS'suggestion welcome'
p2757
aS'writing exercise'
p2758
aS'alternate universe canon divergence'
p2759
aS'probably'
p2760
aS'short sweet'
p2761
aS'dean sam walk alec magnus'
p2762
aS'someone explained difference shadowhunters hunter'
p2763
aS'okay joey might hit charlie'
p2764
aS'chandler might little pissed hunter flat'
p2765
aS'chandler company might suddenly evil'
p2766
aS'yeah freeform'
p2767
aS'sorry guy'
p2768
aa(lp2769
S'alternate universe canon divergence'
p2770
aS'friendship'
p2771
aS'romance'
p2772
aS'humor'
p2773
aS'eating disorder'
p2774
aa(lp2775
S'friendshiplove'
p2776
aS'angst'
p2777
aS'emotional hurtcomfort'
p2778
aS'alcohol'
p2779
aS'minor injury'
p2780
aS'missing scene'
p2781
aa(lp2782
S'blow job'
p2783
aS'hand job'
p2784
aS'making'
p2785
aa(lp2786
S'caught'
p2787
aS'making'
p2788
aa(lp2789
S'first kiss'
p2790
aS'love confession'
p2791
aS'first fanfic'
p2792
aS'rope bondage'
p2793
aS'masochism'
p2794
aS'chandler hella masochist'
p2795
aS'chair sex'
p2796
aS'chair bondage'
p2797
aS'funny'
p2798
aS'accidental voyeurism'
p2799
aa(lp2800
a(lp2801
S'drabbles'
p2802
aS'platonic bonding'
p2803
aS'geeking'
p2804
aS'desperate baz'
p2805
aS'tummy kiss'
p2806
aa(lp2807
S'fluffy'
p2808
aS'fluff'
p2809
aS'adorable chandler'
p2810
aS'oneshot'
p2811
aS'virgin'
p2812
aS'badass phoebe'
p2813
aa(lp2814
S'humor'
p2815
aS'friendship'
p2816
aa(lp2817
S'au'
p2818
aS'mild violence'
p2819
aS'mild language'
p2820
aS'mild sexual content'
p2821
aa(lp2822
a(lp2823
S'rachel chandler fanfic'
p2824
aS'friend fluff'
p2825
aS'rachel chandler one shot'
p2826
aS'friend one shot'
p2827
aa(lp2828
S'fluff'
p2829
aS'sterek week'
p2830
aS'alternate universe fantasy'
p2831
aS'dragon rider'
p2832
aS'dialogueonly'
p2833
aS'song lyric'
p2834
aS'parenthood'
p2835
aS'fluff angst'
p2836
aS'angst happy ending'
p2837
aS'light angst'
p2838
aa(lp2839
a(lp2840
S'pack meeting'
p2841
aS'secret relationship'
p2842
aS'accidental kissing'
p2843
aS'platonic kissing'
p2844
aS'awkward kissing'
p2845
aS'pack dynamic'
p2846
aS'domestic fluff'
p2847
aS'based friend episode'
p2848
aa(lp2849
S'smut'
p2850
aS'porn'
p2851
aS'sex'
p2852
aS'oral sex'
p2853
aS'homosexual'
p2854
aS'sexuality'
p2855
aS'norman reedussean patrick flanery mention'
p2856
aS'flandus mention'
p2857
aS'rickyl'
p2858
aS'leedus'
p2859
aS'release'
p2860
aS'drunk sex'
p2861
aS'anal fingering'
p2862
aS'foreplay'
p2863
aS'normandy freeform'
p2864
aS'cock sucking'
p2865
aS'eventual sex'
p2866
aS'man man'
p2867
aS'sword fighting'
p2868
aS'bulge'
p2869
aS'fingering'
p2870
aS'anal play'
p2871
aS'gay sex'
p2872
aS'anal sex'
p2873
aS'rough sex'
p2874
aS'dirty talk'
p2875
aa(lp2876
S'alternate universe apocalypse'
p2877
aS'friendshiplove'
p2878
aa(lp2879
a(lp2880
S'friendship'
p2881
aS'friend lover'
p2882
aS'slow burn'
p2883
aS'romance'
p2884
aS'romantic comedy'
p2885
aS'angst'
p2886
aS'fluff'
p2887
aS'wip'
p2888
aS'alternate universe modern setting'
p2889
aS'friend benefit'
p2890
aS'childhood friend'
p2891
aa(lp2892
a(lp2893
S'fluffy'
p2894
aS'smuty'
p2895
aS'comedy'
p2896
aS'romance'
p2897
aa(lp2898
a(lp2899
S'past rapenoncon'
p2900
aS'rape recovery'
p2901
aS'angst'
p2902
aS'prerelationship'
p2903
aS'early canon'
p2904
aS'anxiety attack'
p2905
aS'anxiety'
p2906
aa(lp2907
S'slight making'
p2908
aS'dean sleep joeys bed'
p2909
aS'dean meet group'
p2910
aa(lp2911
S'ghost hunt freeform'
p2912
aS'minor making'
p2913
aa(lp2914
S'secret relationship'
p2915
aS'tow kip'
p2916
aS'crossover'
p2917
aS'sneaking around'
p2918
aS'caught'
p2919
aa(lp2920
S'episodebyepisode'
p2921
aS'alternate universe canon divergence'
p2922
aS'fluff'
p2923
aa(lp2924
S'500 word drabbles'
p2925
aS'additional tag added'
p2926
aS'alternative universe'
p2927
aS'marriage'
p2928
aS'mental illness'
p2929
aS'au'
p2930
aS'mermaid'
p2931
aS'character death'
p2932
aS'arranged marriage'
p2933
aS'modern au'
p2934
aa(lp2935
S'friend au carmilla character'
p2936
aa(lp2937
a(lp2938
S'recasting'
p2939
aS'transgirlross'
p2940
aS'lesbianrachel'
p2941
aS'genderqueerchandler'
p2942
aS'rosesusancarol polyamory'
p2943
aS'episode rewrite'
p2944
aS'alternate universe modern setting'
p2945
aa(lp2946
S'fixit'
p2947
aS'alternate ending'
p2948
aS'challenge response'
p2949
aS'snark'
p2950
aa(lp2951
S'humor'
p2952
aS'friendship'
p2953
aS'romance'
p2954
aS'zombie apocalypse'
p2955
aa(lp2956
S'alternate universe hunger game setting'
p2957
aS'alternate universe'
p2958
aS'character death'
p2959
aS'canontypical violence'
p2960
aS'angst'
p2961
aS'family feel'
p2962
aa(lp2963
S'alternate universe collegeuniversity'
p2964
aS'character size'
p2965
aS'depression'
p2966
aS'anxiety'
p2967
aS'selfesteem issue'
p2968
aS'self confidence issue'
p2969
aS'protectiveness'
p2970
aS'implied sexual content'
p2971
aS'mild language'
p2972
aS'fat shaming'
p2973
aa(lp2974
S'pregnancy'
p2975
aS'pregnant sex'
p2976
aS'friend benefit'
p2977
aS'malefemale friendship'
p2978
aa(lp2979
a(lp2980
S'crack'
p2981
aS'im sorry'
p2982
aS'friendssort'
p2983
aa(lp2984
S'bittersweet ending'
p2985
aS'phoebe pov'
p2986
aS'memory'
p2987
aS'flashback'
p2988
aS'suicidal thought'
p2989
aa(lp2990
S'nongraphic violence'
p2991
aS'spanking'
p2992
aa(lp2993
S'established relationship'
p2994
aS'smut'
p2995
aS'fluff'
p2996
aS'voyeurism'
p2997
aS'romance'
p2998
aa(lp2999
S'fluff'
p3000
aS'hurtcomfort'
p3001
aS'snow ice'
p3002
aS'bickering'
p3003
aS'coffee'
p3004
aa(lp3005
S'forced date'
p3006
aS'bad way theyre love'
p3007
aa(lp3008
S'alternate universe modern setting'
p3009
aS'friend au'
p3010
aS'friend lover'
p3011
aa(lp3012
S'public hand job'
p3013
aS'hand job'
p3014
aS'bromance'
p3015
aS'panty'
p3016
aS'episode related'
p3017
aa(lp3018
S'friend crossover'
p3019
aS'larry freeform'
p3020
aa(lp3021
S'established relationship'
p3022
aS'medical kink'
p3023
aS'sexual roleplay'
p3024
aS'medical examination'
p3025
aS'hand job'
p3026
aS'praise kink'
p3027
aS'joey horndog'
p3028
aS'chandler shy'
p3029
aS'pwp'
p3030
aS'plot plotporn without plot'
p3031
aa(lp3032
a(lp3033
S'light angst'
p3034
aa(lp3035
S'crack'
p3036
aa(lp3037
a(lp3038
S'christmas fluff'
p3039
aS'idiot love'
p3040
aa(lp3041
S'crossover'
p3042
aS'5 thing'
p3043
aS'podfic'
p3044
aS'podfic length 2030 minute'
p3045
aS'audio format mp3'
p3046
aS'itpe gift'
p3047
aa(lp3048
S'deamons'
p3049
aa(lp3050
S'postseries'
p3051
aS'smut'
p3052
aS'fluff'
p3053
aa(lp3054
a(lp3055
S'werewolf au'
p3056
aS'alternate universe crack'
p3057
aS'smut'
p3058
aS'double drabble'
p3059
aa(lp3060
a(lp3061
a(lp3062
S'first kiss'
p3063
aS'like two first kiss'
p3064
aS'new year eve'
p3065
aS'happy ending'
p3066
aa(lp3067
S'au'
p3068
aa(lp3069
a(lp3070
S'humor'
p3071
aS'friendship'
p3072
aS'female friendship'
p3073
aS'male friendship'
p3074
aa(lp3075
a(lp3076
a(lp3077
S'stile centric'
p3078
aS'friend au'
p3079
aS'friend lover'
p3080
aS'alternate universe'
p3081
aS'alternate universe werewolf'
p3082
aS'stydia'
p3083
aS'stydia week'
p3084
aa(lp3085
S'ficlet collection'
p3086
aa(lp3087
S'crossover'
p3088
aa(lp3089
a(lp3090
S'unrequited love'
p3091
aS'angst'
p3092
aa(lp3093
S'angst'
p3094
aS'romance'
p3095
aa(lp3096
S'general cuteness'
p3097
aa(lp3098
a(lp3099
S'fluff'
p3100
aS'declaration love'
p3101
aS'hospital'
p3102
aS'janitor'
p3103
aS'vent'
p3104
aS'irene smarter john molly'
p3105
aS'based episode friend'
p3106
aS'picking baby name hard'
p3107
aS'arguing'
p3108
aS'mycroft baby crazy'
p3109
aS'established mycroft holmesgreg lestrade'
p3110
aS'implied irene adlersherlock holmes'
p3111
aS'sherlock care little bit'
p3112
aS'john'
p3113
aS'john watson hot head'
p3114
aS'dont need know friend get'
p3115
aa(lp3116
S'sneaky sex'
p3117
aS'cupboard sex'
p3118
aS'crack'
p3119
aS'fluff'
p3120
aS'loo sex'
p3121
aS'oral sex'
p3122
aS'ok lot sex'
p3123
aS'sneaking around'
p3124
aS'alternate universe modern setting'
p3125
aS'friend lover'
p3126
aS'secret relationship'
p3127
aS'alternate universe friend tv fusion'
p3128
aS'arthur bit ocd'
p3129
aS'gwen bonkers'
p3130
aS'merlin look everyone'
p3131
aS'morgana paleontologist'
p3132
aS'gwaine bit hit lady'
p3133
aa(lp3134
S'romantic comedy'
p3135
aS'romantic friendship'
p3136
aS'humor'
p3137
aa(lp3138
S'crack'
p3139
aS'joey internet meme'
p3140
aS'course lesbian female dog'
p3141
aS'lesbian soap opera embarassing lip service'
p3142
aS'joey like wedding'
p3143
aS'joey like lesbian'
p3144
aS'joey ususally tweet food'
p3145
aa(lp3146
a(lp3147
S'community commentfic'
p3148
aS'short fiction'
p3149
aa(lp3150
S'alternate universe mob'
p3151
aS'romance'
p3152
aS'drama'
p3153
aS'angst'
p3154
aS'humor'
p3155
aS'dating'
p3156
aS'family drama'
p3157
aa(lp3158
S'slow build'
p3159
aS'romance'
p3160
aS'humor'
p3161
aS'alternate universe canon divergence'
p3162
aS'fluff smut'
p3163
aa(lp3164
a(lp3165
S'first kiss'
p3166
aS'alternate ending'
p3167
aS'episode tag'
p3168
aa(lp3169
S'romance'
p3170
aS'christmas fluff'
p3171
aS'toothrotting fluff'
p3172
aS'humor'
p3173
aa(lp3174
S'friend freeform'
p3175
aS'tv'
p3176
aS'show'
p3177
aS'best show ever'
p3178
aS'awesome'
p3179
aa(lp3180
S'romance'
p3181
aS'humor'
p3182
aS'bit angst'
p3183
aS'awkward first date'
p3184
aa(lp3185
S'angst'
p3186
aS'romance'
p3187
aS'jealousy'
p3188
aa(lp3189
S'shameless smut'
p3190
aS'bit fluff'
p3191
aS'banter'
p3192
aS'established relationship'
p3193
aa(lp3194
S'alternate universe coffee shop cafu00e9s'
p3195
aS'fluff'
p3196
aS'romance'
p3197
aS'humor'
p3198
aS'smut'
p3199
aS'awkward flirting'
p3200
aS'first date'
p3201
aa(lp3202
S'smut'
p3203
aS'fluffy ending'
p3204
aS'banter'
p3205
aa(lp3206
S'alternate universe high school'
p3207
aa(lp3208
S'montauk'
p3209
aS'london'
p3210
aa(lp3211
S'established relationship'
p3212
aS'fluff'
p3213
aS'romance'
p3214
aS'humor'
p3215
aS'schmoop'
p3216
aa(lp3217
a(lp3218
S'established relationship'
p3219
aS'fluff'
p3220
aS'schmoop'
p3221
aS'hint smut'
p3222
aS'accidental voyeurism'
p3223
aS'romance'
p3224
aS'humor'
p3225
aa(lp3226
S'established relationship'
p3227
aS'fluff'
p3228
aS'pinch smut'
p3229
aS'romance'
p3230
aS'humor'
p3231
aa(lp3232
S'romance'
p3233
aS'fluff'
p3234
aS'humor'
p3235
aS'bit angst'
p3236
aS'established relationship'
p3237
aS'chandler ha secret'
p3238
aS'touch smut'
p3239
aa(lp3240
S'mpreg'
p3241
aS'angstbingo'
p3242
aS'episode tag'
p3243
aS'kind crack exactly'
p3244
aS'thoughtdriven'
p3245
aS'fluff'
p3246
aa(lp3247
S'fluff'
p3248
aS'romance'
p3249
aS'happy ending'
p3250
aS'slow build'
p3251
aS'canon divergent'
p3252
aS'humor'
p3253
aS'emotional baggage'
p3254
aS'internalized homophobia'
p3255
aS'secret relationship'
p3256
aS'pinch angst'
p3257
aS'ridiculous amount fluff'
p3258
aS'developing relationship'
p3259
aS'mondler brotp'
p3260
aS'pining'
p3261
aS'chandler ha issue'
p3262
aS'love confession'
p3263
aS'warm fuzzy feeling'
p3264
aS'lot sex'
p3265
aS'im kidding'
p3266
aS'hope like smut side order fluff'
p3267
aS'sexual tension'
p3268
aS'friend lover'
p3269
aS'daddy issue'
p3270
aa(lp3271
S'fluff'
p3272
aS'sharing clothes'
p3273
aS'romance'
p3274
aS'humor'
p3275
aS'established relationship'
p3276
aS'schmoop'
p3277
aa(lp3278
S'fluff'
p3279
aS'lot'
p3280
aS'mondler brotp'
p3281
aS'established relationship'
p3282
aS'schmoop'
p3283
aS'humor'
p3284
aS'romance'
p3285
aa(lp3286
a(lp3287
S'humor'
p3288
aS'alternate universe'
p3289
aS'awkwardness'
p3290
aS'crack'
p3291
aS'lighthearted'
p3292
aS'fingerfucking'
p3293
aS'accidental voyeurism'
p3294
aS'one shot'
p3295
aa(lp3296
S'ensemble cast'
p3297
aS'humor'
p3298
aS'comedy'
p3299
aS'mystery'
p3300
aS'joey doesnt share food'
p3301
aa(lp3302
S'character death'
p3303
aS'joeyphoebe squint'
p3304
aa(lp3305
S'friendship'
p3306
aa(lp3307
S'angst'
p3308
aS'friendship'
p3309
aS'dubious consent'
p3310
aS'hurtcomfort'
p3311
aS'community hcbingo'
p3312
aS'surprise sex swap'
p3313
aa(lp3314
S'digital art'
p3315
aa(lp3316
S'fling freeform'
p3317
aa(lp3318
S'romance'
p3319
aS'love triangle'
p3320
aa(lp3321
S'crossover'
p3322
aa(lp3323
S'bisexuality'
p3324
aS'bisexual male character'
p3325
aS'coming'
p3326
aS'established relationship'
p3327
aS'married couple'
p3328
aS'selfacceptance'
p3329
aS'postcanon'
p3330
aS'deutsch german'
p3331
aS'friendshiplove'
p3332
aa(lp3333
a(lp3334
a(lp3335
S'fluff'
p3336
aS'nonsense'
p3337
aS'mean'
p3338
ag2036
aS'fandom collide time'
p3339
aS'thats pretty much excuse write'
p3340
aS'also series'
p3341
aS'first one'
p3342
aa(lp3343
a(lp3344
a(lp3345
a(lp3346
S'think people call crack fic'
p3347
aS'wha'
p3348
aS'write watch friend read friend au'
p3349
aS'thankyou much'
p3350
aa(lp3351
S'friendsau'
p3352
aS'prompt fill'
p3353
aS'going fun'
p3354
aS'tell couple want'
p3355
aS'ill consider'
p3356
aS'friendship'
p3357
aS'family'
p3358
aS'humor'
p3359
aS'romance'
p3360
aS'angst'
p3361
aS'genre sun'
p3362
aS'plot based loosely friend'
p3363
aS'loosely'
p3364
aa(lp3365
S'angst'
p3366
aa(lp3367
a(lp3368
S'ensemble cast'
p3369
aS'community fanflashworks'
p3370
aS'humor'
p3371
aS'christmas'
p3372
aS'list'
p3373
aS'5 thing'
p3374
aa(lp3375
S'hurtcomfort'
p3376
aS'romance'
p3377
aa(lp3378
S'romance'
p3379
aa(lp3380
S'alternate universe'
p3381
aS'alternate universe dark'
p3382
aa(lp3383
S'established relationship'
p3384
aS'hurtcomfort'
p3385
aS'community commentfic'
p3386
aa(lp3387
S'friend freeform'
p3388
aS'rachel green freeform'
p3389
aS'ross gellar'
p3390
aa(lp3391
S'friendslock'
p3392
aS'couldnt resist'
p3393
aa(lp3394
S'humor'
p3395
aS'crack'
p3396
aS'drunk sex'
p3397
aS'aftermath'
p3398
aa(lp3399
S'romance'
p3400
aS'married couple'
p3401
aS'married sex'
p3402
aa(lp3403
a(lp3404
S'au'
p3405
aS'crossover'
p3406
aS'humour'
p3407
aa(lp3408
S'bisexuality'
p3409
aS'coming'
p3410
aS'selfacceptance'
p3411
aS'canon het relationship'
p3412
aS'postcanon'
p3413
aS'married couple'
p3414
aa(lp3415
S'christmas'
p3416
aS'holiday'
p3417
aS'fluff'
p3418
aS'family'
p3419
aS'kidfic'
p3420
aS'baby'
p3421
aS'canon pairing freeform'
p3422
aS'canon compliant'
p3423
aS'santa claus freeform'
p3424
aS'reunion'
p3425
aS'friendship'
p3426
aS'present'
p3427
aa(lp3428
S'bdsm'
p3429
aa(lp3430
S'bad screen play formatting'
p3431
aS'drabble'
p3432
aS'humor'
p3433
aa(lp3434
S'break'
p3435
aS'redemption'
p3436
aa(lp3437
S'fluff'
p3438
aa(lp3439
S'podfic'
p3440
aS'podfic length 1020 minute'
p3441
aS'audio format mp3'
p3442
aS'audio format m4b'
p3443
aa(lp3444
S'humor'
p3445
aS'romance'
p3446
aa(lp3447
S'masturbation'
p3448
aS'porn battle'
p3449
aS'unresolved sexual tension'
p3450
aS'angst'
p3451
aa(lp3452
a(lp3453
a(lp3454
S'walking graveyard night'
p3455
aS'prompt fic'
p3456
aS'woman awesome'
p3457
aS'vampire'
p3458
aa(lp3459
S'porn battle'
p3460
aa(lp3461
S'romance'
p3462
aa(lp3463
S'fluff'
p3464
aS'firsttime'
p3465
aS'first kiss'
p3466
aa(lp3467
a(lp3468
S'alternate universe canon divergence'
p3469
aa(lp3470
S'fanvids'
p3471
aS'gag reel'
p3472
aa(lp3473
S'fanvids'
p3474
aS'slash'
p3475
aa(lp3476
a(lp3477
a(lp3478
a(lp3479
S'first time'
p3480
aS'pov first person'
p3481
aS'pov male character'
p3482
aS'plot plot'
p3483
aS'canon tv'
p3484
aS'present tense'
p3485
aa(lp3486
a(lp3487
a(lp3488
S'community commentfic'
p3489
aS'comment fic'
p3490
aa(lp3491
S'marriage proposal'
p3492
aS'comment fic'
p3493
aS'community commentfic'
p3494
aa(lp3495
S'birthday'
p3496
aS'fluff'
p3497
aS'community commentfic'
p3498
aa(lp3499
S'coming'
p3500
aS'first kiss'
p3501
aS'community commentfic'
p3502
aa(lp3503
S'community commentfic'
p3504
aa(lp3505
S'crossover'
p3506
aa(lp3507
S'domestic'
p3508
aa(lp3509
S'crossover'
p3510
aS'5 thing'
p3511
aa(lp3512
S'canontypical violence'
p3513
aS'internalized homophobia'
p3514
aS'homophobia'
p3515
aS'unrequited love'
p3516
aS'love confession'
p3517
aS'abandoned work unfinished discontinued'
p3518
aS'kidnapping'
p3519
aa(lp3520
S'yuletide'
p3521
aS'recipientbastet'
p3522
aS'challengeyuletide 2007'
p3523
aa(lp3524
a(lp3525
a(lp3526
a(lp3527
a(lp3528
S'crossover'
p3529
aS'humor'
p3530
aa(lp3531
S'fluff'
p3532
aa(lp3533
S'drabble'
p3534
aa(lp3535
S'voyeurism'
p3536
aS'canon het relationship'
p3537
aa(lp3538
S'humor'
p3539
aS'horror'
p3540
aa(lp3541
S'alternate universe'
p3542
aS'infidelity'
p3543
aS'het'
p3544
aS'schmoop'
p3545
aS'angst'
p3546
aS'soulmates'
p3547
aa(lp3548
a(lp3549
S'coda 10x13 one joey speaks french'
p3550
aa(lp3551
a(lp3552
S'baby'
p3553
aS'marriage proposal'
p3554
aa(lp3555
S'fluff humor'
p3556
aa(lp3557
S'crack'
p3558
aa(lp3559
S'early work'
p3560
aS'crossover'
p3561
aa.