(lp0
(lp1
I351
aI365
aa(lp2
I56
aI170
aI443
aa(lp3
a(lp4
I177
aI315
aI316
aI441
aa(lp5
a(lp6
a(lp7
I129
aI129
aI369
aI409
aI418
aa(lp8
I129
aI129
aa(lp9
I24
aI40
aI45
aI45
aI45
aI46
aI112
aI128
aI134
aI147
aI172
aI177
aI181
aI315
aI316
aI381
aI396
aI418
aI427
aI471
aa(lp10
I114
aa(lp11
a(lp12
a(lp13
a(lp14
a(lp15
a(lp16
a(lp17
a(lp18
a(lp19
a(lp20
a(lp21
a(lp22
a(lp23
a(lp24
a(lp25
a(lp26
a(lp27
a(lp28
a(lp29
a(lp30
a(lp31
a(lp32
a(lp33
a(lp34
a(lp35
a(lp36
a(lp37
a(lp38
a(lp39
a(lp40
a(lp41
a(lp42
a(lp43
a(lp44
a(lp45
a(lp46
a(lp47
a(lp48
a(lp49
a(lp50
a(lp51
a.