(lp0
(lp1
I16
aI47
aI53
aI62
aI81
aI160
aI167
aI178
aI200
aI202
aI228
aI256
aI264
aI272
aI325
aI330
aI331
aI379
aI444
aI457
aI472
aI474
aI488
aI508
aI524
aI528
aI538
aI572
aI574
aI575
aI587
aI610
aI666
aI689
aI693
aI740
aI777
aI779
aI794
aI800
aI805
aI816
aI831
aI857
aI873
aI876
aI918
aI939
aI940
aI960
aI1041
aI1042
aI1056
aI1064
aI1077
aI1089
aI1105
aI1130
aI1140
aI1260
aI1284
aI1292
aI1347
aI1397
aI1402
aI1433
aI1449
aI1459
aI1479
aI1515
aI1545
aI1547
aI1549
aI1563
aI1610
aI1667
aI1679
aI1711
aI1714
aI1716
aI1749
aI1765
aI1770
aI1792
aI1809
aI1833
aI1863
aI1868
aI1900
aI1913
aI1929
aI1945
aI1949
aI1953
aI1966
aI1967
aI2015
aI2017
aI2078
aI2095
aI2096
aI2139
aI2149
aI2159
aI2205
aI2220
aI2258
aI2271
aI2290
aI2307
aI2367
aI2378
aI2383
aI2403
aI2422
aI2464
aI2537
aI2595
aI2601
aI2608
aI2627
aI2646
aI2659
aI2665
aI2666
aI2762
aI2778
aI2801
aI2804
aI2827
aI2834
aI2906
aI2922
aI2935
aI2976
aI2990
aI3031
aI3042
aI3141
aI3162
aI3317
aI3319
aI3327
aI3339
aI3343
aI3360
aI3361
aI3425
aI3430
aI3431
aI3476
aI3487
aI3496
aI3511
aI3528
aI3533
aI3557
aI3584
aI3629
aI3648
aI3752
aI3801
aI3814
aI3824
aI3836
aI3892
aI3923
aI3949
aI4194
aI4195
aI4204
aI4215
aI4227
aI4239
aI4253
aI4280
aI4356
aI4391
aI4496
aI4510
aI4515
aI4518
aI4561
aI4573
aI4584
aI4620
aI4665
aI4697
aI4750
aI4752
aI4794
aI4892
aI4893
aI4908
aI4910
aI4937
aI4987
aI4992
aI5026
aI5050
aI5172
aI5196
aI5230
aI5252
aI5272
aI5304
aI5312
aI5363
aI5452
aI5514
aI5520
aI5529
aI5541
aI5563
aI5589
aI5624
aI5637
aI5661
aI5666
aI5668
aI5670
aI5680
aI5771
aI5772
aI5866
aI5880
aI5886
aI5952
aI5966
aI5999
aI6096
aI6113
aI6155
aI6187
aI6208
aI6235
aI6256
aI6270
aI6299
aI6328
aI6336
aI6365
aI6384
aI6451
aI6488
aI6539
aI6567
aI6590
aI6618
aI6803
aI6939
aI6972
aI6973
aI6992
aI6994
aI7002
aI7033
aI7064
aI7091
aI7131
aI7185
aI7206
aI7250
aI7259
aI7340
aI7399
aI7480
aI7544
aI7580
aI7588
aI7607
aI7663
aI7668
aI7714
aI7752
aI7776
aI7807
aI7832
aI7833
aI7862
aI7909
aI7912
aI7964
aI7994
aI8015
aI8030
aI8069
aI8092
aI8142
aI8169
aI8195
aI8214
aI8220
aI8231
aI8264
aI8301
aI8310
aI8349
aI8353
aI8373
aI8430
aI8440
aI8443
aI8484
aI8516
aI8527
aI8538
aI8602
aI8634
aI8775
aI8818
aI8848
aI8858
aI8887
aI8913
aI9014
aI9023
aI9080
aI9152
aI9162
aI9210
aI9225
aI9234
aI9258
aI9386
aI9387
aI9396
aI9402
aI9415
aI9509
aI9526
aI9532
aI9607
aI9673
aI9733
aI9746
aI9757
aI9758
aI9814
aI9815
aI9823
aI9836
aI9866
aI9869
aI9906
aI9951
aI10039
aI10058
aI10064
aI10109
aI10123
aI10210
aI10249
aI10251
aI10254
aI10495
aI10553
aI10557
aI10584
aI10589
aI10591
aI10594
aI10675
aI10704
aI10773
aI10820
aI10875
aI10886
aI10936
aI10989
aI10997
aI11035
aI11045
aI11060
aI11103
aI11181
aI11188
aI11208
aI11230
aI11246
aI11287
aI11352
aI11379
aI11382
aI11419
aI11433
aI11478
aI11495
aI11514
aI11573
aI11605
aI11608
aI11665
aI11691
aI11725
aI11750
aI11765
aI11815
aI11830
aI11834
aI11858
aI11862
aI12018
aI12049
aI12101
aI12134
aI12151
aI12155
aI12169
aI12185
aI12304
aI12349
aI12379
aI12412
aI12427
aI12464
aI12489
aI12548
aI12556
aI12583
aI12605
aI12715
aI12740
aI12855
aI12891
aI12964
aI12976
aI12979
aI13005
aI13051
aI13057
aI13058
aI13066
aI13107
aI13163
aI13171
aI13234
aI13373
aI13447
aI13455
aI13539
aI13602
aI13618
aI13638
aI13648
aI13672
aI13686
aI13697
aI13698
aI13710
aI13722
aI13750
aI13786
aI13822
aI13828
aI13835
aI13837
aI13874
aI13881
aI13886
aI13916
aI14057
aI14102
aI14139
aI14149
aI14182
aI14189
aI14204
aI14207
aI14246
aI14261
aI14315
aI14379
aI14401
aI14403
aI14410
aI14493
aI14547
aI14569
aI14588
aI14624
aI14648
aI14652
aI14653
aI14659
aI14679
aI14690
aI14724
aI14771
aI14783
aI14786
aI14804
aI14823
aI14830
aI14843
aI14859
aI14861
aI14879
aI14889
aI14890
aI14891
aI14977
aI14984
aI14992
aI15140
aI15144
aI15149
aI15178
aI15195
aI15266
aI15281
aI15307
aI15335
aI15368
aI15475
aI15495
aI15503
aI15603
aI15619
aI15650
aI15669
aI15678
aI15734
aI15746
aI15760
aI15797
aI15817
aI15855
aI15860
aI15899
aI15925
aI15949
aI16009
aI16026
aI16027
aI16050
aI16085
aI16110
aI16156
aI16159
aI16162
aI16243
aI16276
aI16285
aI16307
aI16323
aI16342
aI16384
aI16385
aI16403
aI16430
aI16464
aI16580
aI16596
aI16604
aI16623
aI16672
aI16693
aI16694
aI16712
aI16720
aI16741
aI16750
aI16765
aI16784
aI16788
aI16880
aI16881
aI16899
aI16922
aI16931
aI16975
aI16978
aI16987
aI16994
aI17078
aI17104
aI17118
aI17146
aI17158
aI17165
aI17188
aI17193
aI17206
aI17207
aI17225
aI17236
aI17244
aI17286
aI17313
aI17343
aI17359
aI17362
aI17414
aI17440
aI17450
aI17475
aI17506
aI17514
aI17558
aI17584
aI17606
aI17664
aI17706
aI17749
aI17750
aI17753
aI17768
aI17784
aI17811
aI17844
aI17849
aI17870
aI17912
aI18017
aI18020
aI18022
aI18034
aI18068
aI18097
aI18118
aI18143
aI18148
aI18156
aI18167
aI18197
aI18199
aI18218
aI18397
aI18401
aI18441
aI18483
aI18501
aI18505
aI18571
aI18606
aI18610
aI18641
aI18665
aI18692
aI18764
aI18779
aI18791
aI18822
aI18854
aI18856
aI18903
aI18917
aI18937
aI19044
aI19054
aI19057
aI19081
aI19085
aI19093
aI19124
aI19149
aI19150
aI19223
aI19227
aI19255
aI19358
aI19378
aI19410
aI19513
aI19520
aI19531
aI19556
aI19572
aI19610
aI19620
aI19680
aI19685
aI19701
aI19783
aI19794
aI19822
aI19866
aI19904
aI19920
aI19945
aI19960
aI19980
aI20009
aI20071
aI20105
aI20116
aI20125
aI20163
aI20174
aI20226
aI20244
aI20257
aI20297
aI20304
aI20308
aI20414
aI20417
aI20521
aI20536
aI20538
aI20563
aI20723
aI20746
aI20788
aI20796
aI20826
aI20909
aI20911
aI20920
aI21055
aI21071
aI21096
aI21104
aI21112
aI21160
aI21210
aI21223
aI21242
aI21277
aI21295
aI21314
aI21330
aI21335
aI21346
aI21356
aI21387
aI21457
aI21462
aI21470
aI21481
aI21486
aI21546
aI21585
aI21594
aI21606
aI21621
aI21828
aI21839
aI21864
aI21930
aI21952
aI22081
aI22116
aI22156
aI22158
aI22211
aI22258
aI22270
aI22315
aI22342
aI22352
aI22368
aI22401
aI22435
aI22452
aI22461
aI22492
aI22559
aI22749
aI22756
aI22760
aI22791
aI22807
aI22808
aI22810
aI22812
aI22819
aI22820
aI22822
aI22824
aI22835
aI22955
aI23063
aI23067
aI23094
aI23107
aI23115
aI23122
aI23147
aI23154
aI23157
aI23298
aI23320
aI23370
aI23447
aI23514
aI23520
aI23522
aI23559
aI23560
aI23634
aI23644
aI23669
aI23688
aI23740
aI23741
aI23746
aI23785
aI23792
aI23885
aI23927
aI23937
aI23964
aI23995
aI24018
aI24046
aI24058
aI24090
aI24157
aI24207
aI24236
aI24290
aI24313
aI24356
aI24478
aI24498
aI24538
aI24690
aI24717
aI24767
aI24793
aI24797
aI24862
aI24894
aI24982
aI24988
aI25039
aI25049
aI25056
aI25148
aI25150
aI25151
aI25180
aI25191
aI25202
aI25289
aI25297
aI25299
aI25324
aI25411
aI25431
aI25447
aI25513
aI25526
aI25661
aI25663
aI25684
aI25729
aI25740
aI25776
aI25785
aI25796
aI25822
aI25846
aI25851
aI25858
aI25882
aI25896
aI25969
aI26021
aI26038
aI26114
aI26116
aI26131
aI26177
aI26195
aI26230
aI26256
aI26364
aI26405
aI26448
aI26538
aI26576
aI26653
aI26687
aa(lp2
I4
aI11
aI41
aI83
aI95
aI100
aI201
aI247
aI435
aI471
aI525
aI563
aI593
aI658
aI718
aI834
aI850
aI869
aI929
aI994
aI1067
aI1082
aI1152
aI1171
aI1181
aI1201
aI1249
aI1252
aI1286
aI1297
aI1314
aI1324
aI1359
aI1388
aI1447
aI1497
aI1511
aI1587
aI1599
aI1630
aI1644
aI1704
aI1752
aI1776
aI1811
aI1886
aI1909
aI1941
aI1973
aI2003
aI2007
aI2035
aI2054
aI2115
aI2178
aI2182
aI2259
aI2304
aI2309
aI2313
aI2323
aI2402
aI2421
aI2558
aI2597
aI2612
aI2701
aI2706
aI2754
aI2778
aI2786
aI2796
aI2812
aI2836
aI2847
aI2868
aI2873
aI2895
aI2907
aI2912
aI2916
aI2937
aI2955
aI2998
aI3005
aI3018
aI3035
aI3036
aI3045
aI3086
aI3148
aI3176
aI3205
aI3212
aI3216
aI3250
aI3281
aI3342
aI3355
aI3370
aI3382
aI3429
aI3461
aI3478
aI3545
aI3563
aI3590
aI3594
aI3598
aI3605
aI3673
aI3683
aI3688
aI3698
aI3711
aI3714
aI3718
aI3772
aI3823
aI3911
aI3927
aI3956
aI3970
aI3979
aI3980
aI4038
aI4102
aI4164
aI4193
aI4318
aI4353
aI4377
aI4523
aI4550
aI4565
aI4582
aI4618
aI4792
aI4805
aI4838
aI4860
aI4925
aI4953
aI5000
aI5035
aI5045
aI5103
aI5127
aI5385
aI5411
aI5478
aI5498
aI5535
aI5657
aI5857
aI5943
aI5954
aI5984
aI6000
aI6005
aI6075
aI6145
aI6203
aI6212
aI6293
aI6333
aI6345
aI6386
aI6390
aI6428
aI6465
aI6485
aI6585
aI6600
aI6642
aI6651
aI6663
aI6684
aI6715
aI6772
aI6774
aI6784
aI6799
aI6967
aI7058
aI7083
aI7210
aI7256
aI7370
aI7381
aI7449
aI7456
aI7525
aI7527
aI7566
aI7583
aI7613
aI7632
aI7633
aI7665
aI7672
aI7715
aI7716
aI7793
aI7794
aI7810
aI7951
aI7966
aI7970
aI7976
aI7982
aI8143
aI8163
aI8190
aI8214
aI8244
aI8266
aI8268
aI8362
aI8380
aI8385
aI8401
aI8460
aI8552
aI8576
aI8708
aI8715
aI8807
aI8824
aI8928
aI8970
aI8976
aI9002
aI9036
aI9083
aI9137
aI9167
aI9294
aI9300
aI9347
aI9465
aI9505
aI9510
aI9513
aI9536
aI9636
aI9655
aI9684
aI9795
aI9808
aI9898
aI9903
aI9966
aI10004
aI10035
aI10078
aI10105
aI10195
aI10242
aI10263
aI10266
aI10273
aI10382
aI10439
aI10531
aI10532
aI10548
aI10728
aI10770
aI10794
aI10796
aI10871
aI10921
aI10930
aI10980
aI11027
aI11096
aI11103
aI11113
aI11149
aI11178
aI11220
aI11402
aI11558
aI11625
aI11760
aI11802
aI11820
aI11866
aI11881
aI11891
aI11986
aI11988
aI11993
aI12190
aI12197
aI12204
aI12212
aI12240
aI12391
aI12396
aI12403
aI12407
aI12438
aI12446
aI12458
aI12463
aI12493
aI12497
aI12523
aI12530
aI12657
aI12708
aI12764
aI12808
aI12833
aI12906
aI12931
aI12938
aI13232
aI13234
aI13325
aI13372
aI13624
aI13685
aI13817
aI13847
aI13914
aI13992
aI14034
aI14043
aI14109
aI14145
aI14172
aI14196
aI14198
aI14213
aI14214
aI14284
aI14299
aI14325
aI14373
aI14468
aI14477
aI14498
aI14577
aI14578
aI14676
aI14705
aI14753
aI14761
aI14772
aI14798
aI14878
aI14926
aI14957
aI14961
aI14982
aI15003
aI15047
aI15062
aI15111
aI15278
aI15335
aI15381
aI15422
aI15425
aI15435
aI15521
aI15575
aI15590
aI15763
aI15779
aI15789
aI15833
aI15863
aI15864
aI15872
aI15891
aI15983
aI15986
aI16094
aI16132
aI16147
aI16207
aI16263
aI16275
aI16298
aI16317
aI16338
aI16348
aI16452
aI16506
aI16569
aI16614
aI16630
aI16647
aI16702
aI16713
aI16774
aI16795
aI16830
aI16860
aI16888
aI16961
aI16966
aI17148
aI17224
aI17279
aI17328
aI17410
aI17507
aI17508
aI17531
aI17537
aI17597
aI17673
aI17700
aI17711
aI17813
aI17897
aI17902
aI17930
aI17941
aI18004
aI18016
aI18149
aI18202
aI18230
aI18333
aI18368
aI18432
aI18548
aI18570
aI18580
aI18647
aI18707
aI18777
aI18886
aI18890
aI18920
aI18975
aI19072
aI19118
aI19122
aI19162
aI19183
aI19191
aI19198
aI19292
aI19316
aI19328
aI19388
aI19447
aI19457
aI19475
aI19574
aI19667
aI19735
aI19780
aI19833
aI19864
aI19904
aI19973
aI20067
aI20102
aI20118
aI20121
aI20143
aI20168
aI20243
aI20281
aI20360
aI20375
aI20417
aI20432
aI20498
aI20502
aI20521
aI20620
aI20641
aI20688
aI20693
aI20730
aI20733
aI20741
aI20742
aI20776
aI20821
aI20851
aI20970
aI20985
aI20995
aI21018
aI21032
aI21062
aI21073
aI21339
aI21341
aI21354
aI21429
aI21450
aI21548
aI21589
aI21641
aI21675
aI21787
aI21805
aI21849
aI21882
aI21911
aI21936
aI21938
aI21987
aI22029
aI22071
aI22078
aI22079
aI22082
aI22102
aI22119
aI22191
aI22211
aI22216
aI22241
aI22255
aI22267
aI22268
aI22342
aI22389
aI22395
aI22408
aI22411
aI22414
aI22421
aI22422
aI22443
aI22521
aI22527
aI22554
aI22596
aI22610
aI22685
aI22688
aI22689
aI22690
aI22749
aI22758
aI22798
aI22806
aI22834
aI22842
aI22895
aI22902
aI22944
aI22950
aI22971
aI22978
aI22979
aI23049
aI23071
aI23102
aI23130
aI23131
aI23152
aI23162
aI23168
aI23210
aI23307
aI23403
aI23423
aI23480
aI23523
aI23592
aI23661
aI23730
aI23749
aI23778
aI23807
aI23881
aI24016
aI24076
aI24135
aI24206
aI24215
aI24272
aI24312
aI24388
aI24418
aI24445
aI24446
aI24470
aI24556
aI24623
aI24792
aI24803
aI24811
aI24834
aI24862
aI24912
aI24942
aI24986
aI25017
aI25042
aI25067
aI25076
aI25086
aI25210
aI25248
aI25284
aI25350
aI25415
aI25469
aI25472
aI25478
aI25667
aI25693
aI25765
aI25824
aI25864
aI25886
aI25921
aI25988
aI26018
aI26084
aI26125
aI26211
aI26218
aI26242
aI26270
aI26287
aI26316
aI26333
aI26489
aI26593
aI26602
aI26625
aa(lp3
I46
aI104
aI196
aI229
aI245
aI312
aI522
aI531
aI589
aI617
aI660
aI661
aI666
aI717
aI768
aI808
aI943
aI1014
aI1047
aI1082
aI1219
aI1289
aI1349
aI1376
aI1457
aI1487
aI1505
aI1515
aI1527
aI1571
aI1668
aI1728
aI1905
aI1910
aI1924
aI1992
aI2002
aI2037
aI2067
aI2127
aI2208
aI2249
aI2436
aI2506
aI2593
aI2692
aI2701
aI2730
aI2790
aI2805
aI2817
aI2834
aI2905
aI3006
aI3102
aI3157
aI3224
aI3297
aI3299
aI3329
aI3412
aI3484
aI3510
aI3552
aI3772
aI3813
aI4047
aI4108
aI4243
aI4290
aI4320
aI4351
aI4377
aI4555
aI4606
aI4665
aI4668
aI4715
aI4780
aI4829
aI4832
aI4884
aI4903
aI5026
aI5067
aI5108
aI5121
aI5162
aI5414
aI5520
aI5730
aI5935
aI6070
aI6177
aI6387
aI6505
aI6518
aI6523
aI6583
aI6615
aI6708
aI6774
aI6863
aI6978
aI6979
aI7056
aI7242
aI7308
aI7340
aI7454
aI7686
aI7972
aI8033
aI8053
aI8075
aI8095
aI8098
aI8127
aI8154
aI8362
aI8415
aI8505
aI8525
aI8557
aI8572
aI8618
aI8673
aI8804
aI8872
aI8895
aI8898
aI8986
aI8997
aI9041
aI9083
aI9089
aI9603
aI9628
aI9879
aI9943
aI10020
aI10036
aI10088
aI10170
aI10181
aI10185
aI10493
aI10519
aI10695
aI10865
aI10907
aI11003
aI11072
aI11111
aI11120
aI11267
aI11312
aI11489
aI11510
aI11530
aI11579
aI11605
aI11644
aI11883
aI11955
aI11999
aI12079
aI12202
aI12302
aI12345
aI12452
aI12511
aI12526
aI12541
aI12642
aI12781
aI12791
aI12881
aI12919
aI12923
aI12978
aI13043
aI13234
aI13277
aI13285
aI13305
aI13331
aI13429
aI13453
aI13634
aI13647
aI13683
aI13724
aI13731
aI13920
aI13940
aI14004
aI14188
aI14229
aI14249
aI14320
aI14348
aI14375
aI14436
aI14456
aI14470
aI14499
aI14518
aI14674
aI14804
aI14810
aI14974
aI15007
aI15057
aI15153
aI15190
aI15215
aI15248
aI15259
aI15295
aI15347
aI15363
aI15372
aI15409
aI15490
aI15622
aI15624
aI15680
aI15689
aI15704
aI15722
aI15943
aI15973
aI16145
aI16261
aI16334
aI16380
aI16388
aI16408
aI16453
aI16520
aI16626
aI16726
aI16927
aI16941
aI17010
aI17042
aI17093
aI17106
aI17109
aI17135
aI17197
aI17227
aI17232
aI17238
aI17266
aI17397
aI17459
aI17584
aI17626
aI17656
aI17664
aI17717
aI17760
aI17817
aI17827
aI17828
aI17880
aI17900
aI17947
aI17977
aI18073
aI18115
aI18154
aI18234
aI18405
aI18500
aI18516
aI18658
aI18819
aI18840
aI18880
aI18902
aI18977
aI18989
aI19130
aI19137
aI19218
aI19349
aI19584
aI19638
aI19695
aI19727
aI19751
aI19838
aI19841
aI20093
aI20151
aI20226
aI20230
aI20252
aI20314
aI20335
aI20426
aI20517
aI20579
aI20655
aI20720
aI20821
aI20827
aI20895
aI20916
aI21005
aI21036
aI21073
aI21195
aI21272
aI21330
aI21379
aI21634
aI21789
aI21889
aI21967
aI21973
aI22178
aI22237
aI22240
aI22252
aI22325
aI22389
aI22433
aI22459
aI22531
aI22623
aI22680
aI22771
aI22862
aI22934
aI22943
aI23077
aI23117
aI23615
aI23629
aI23707
aI23708
aI23858
aI23989
aI24078
aI24149
aI24166
aI24240
aI24353
aI24371
aI24386
aI24392
aI24590
aI24605
aI24608
aI24610
aI24614
aI24624
aI24692
aI24694
aI24808
aI24845
aI24862
aI24910
aI25081
aI25096
aI25166
aI25269
aI25837
aI25838
aI25848
aI25869
aI25949
aI25977
aI26006
aI26040
aI26087
aI26106
aI26182
aI26298
aI26346
aI26352
aI26373
aI26377
aI26420
aI26434
aI26458
aI26480
aI26493
aI26523
aI26570
aI26571
aI26673
aa(lp4
I518
aI818
aI1040
aI1195
aI1526
aI1803
aI1996
aI2101
aI2147
aI2208
aI2867
aI2873
aI3151
aI3711
aI3761
aI3823
aI3951
aI4594
aI4879
aI5025
aI5046
aI5867
aI6052
aI6275
aI6308
aI6774
aI6799
aI6906
aI7312
aI7397
aI7406
aI7429
aI7456
aI7669
aI8266
aI8275
aI8385
aI8401
aI8564
aI8754
aI9002
aI9006
aI9142
aI9333
aI9357
aI9540
aI9636
aI9670
aI9773
aI9795
aI9808
aI10266
aI11195
aI11448
aI11606
aI11881
aI12240
aI12274
aI12446
aI12642
aI13194
aI13398
aI13421
aI14149
aI14404
aI14533
aI14559
aI14562
aI14564
aI14578
aI14613
aI14753
aI14761
aI15047
aI15056
aI15062
aI15278
aI15319
aI15445
aI15763
aI15858
aI16257
aI16312
aI16457
aI16506
aI16966
aI17506
aI17507
aI17522
aI17531
aI17584
aI17631
aI17727
aI17857
aI17930
aI18489
aI18628
aI18759
aI19016
aI19120
aI19375
aI19892
aI20121
aI20199
aI20267
aI20453
aI20653
aI20669
aI20742
aI21119
aI21339
aI21351
aI21354
aI21896
aI22268
aI23049
aI23057
aI23062
aI23168
aI23412
aI23992
aI24076
aI24142
aI24307
aI24401
aI24834
aI24969
aI25026
aI25203
aI25248
aI25323
aI25430
aI26007
aI26311
aI26403
aI26432
aI26445
aI26510
aa(lp5
I257
aI324
aI376
aI1049
aI1152
aI1195
aI1277
aI1852
aI2482
aI2927
aI3380
aI3589
aI4647
aI4780
aI4855
aI5140
aI5264
aI5296
aI8275
aI8385
aI8564
aI9142
aI9670
aI9832
aI10959
aI11103
aI11640
aI11797
aI12592
aI12787
aI12892
aI13864
aI13958
aI14440
aI14560
aI14588
aI16031
aI16428
aI17263
aI17281
aI17578
aI17646
aI17814
aI17828
aI17898
aI17910
aI18010
aI18301
aI18330
aI19120
aI19838
aI19979
aI20417
aI20521
aI20819
aI21354
aI21408
aI23081
aI23097
aI23477
aI23894
aI24464
aI24581
aI25317
aI25479
aI25580
aI25733
aI26205
aI26282
aI26301
aa(lp6
I40
aI133
aI192
aI238
aI429
aI516
aI524
aI725
aI731
aI783
aI1031
aI1177
aI1181
aI1246
aI1280
aI1646
aI1752
aI1786
aI1844
aI1887
aI2020
aI2111
aI2119
aI2338
aI2347
aI2443
aI2469
aI2518
aI2616
aI2625
aI2633
aI2869
aI3083
aI3294
aI3379
aI3482
aI3558
aI3628
aI3813
aI3950
aI4052
aI4270
aI4372
aI4505
aI4787
aI4821
aI4982
aI5282
aI5373
aI5741
aI5862
aI5984
aI5989
aI6078
aI6104
aI6212
aI6461
aI6525
aI6659
aI6897
aI6899
aI7494
aI7567
aI7719
aI7720
aI8077
aI8705
aI8945
aI9182
aI9447
aI9611
aI10717
aI10779
aI11615
aI11973
aI12058
aI12301
aI12715
aI12892
aI12925
aI12934
aI13126
aI13271
aI13380
aI13392
aI13493
aI13599
aI13880
aI14068
aI14191
aI14383
aI14826
aI15022
aI15032
aI15255
aI15337
aI15457
aI15491
aI15502
aI15601
aI15635
aI15672
aI15991
aI16057
aI16402
aI16424
aI16538
aI16624
aI16694
aI17385
aI17692
aI17954
aI18069
aI18174
aI18831
aI18984
aI19092
aI19345
aI19390
aI19689
aI19882
aI20429
aI20455
aI20456
aI20705
aI20975
aI21099
aI21140
aI21144
aI21200
aI21351
aI21482
aI21528
aI21615
aI21956
aI22170
aI22248
aI22316
aI22349
aI22363
aI22465
aI22496
aI22632
aI22934
aI23219
aI23290
aI23611
aI23906
aI24083
aI24607
aI24698
aI24699
aI24861
aI24885
aI25884
aI26083
aI26209
aI26360
aa(lp7
I53
aI65
aI191
aI195
aI214
aI238
aI371
aI379
aI450
aI461
aI521
aI589
aI662
aI736
aI923
aI973
aI975
aI1187
aI1194
aI1360
aI1376
aI1447
aI1502
aI1592
aI1828
aI1833
aI1874
aI1885
aI2046
aI2379
aI2434
aI2447
aI2479
aI2495
aI2553
aI2575
aI2685
aI2865
aI3370
aI3391
aI3398
aI3430
aI3448
aI3621
aI3660
aI3665
aI3697
aI3740
aI3821
aI3881
aI4366
aI4482
aI4668
aI4893
aI4998
aI5025
aI5279
aI5288
aI5331
aI5358
aI5468
aI5590
aI5857
aI6086
aI6123
aI6128
aI6162
aI6316
aI6610
aI6643
aI6756
aI7012
aI7017
aI7056
aI7516
aI7613
aI7779
aI8173
aI8218
aI8264
aI8443
aI8477
aI8521
aI8552
aI8789
aI8846
aI8949
aI9085
aI9104
aI9358
aI9389
aI9600
aI9772
aI9864
aI10038
aI10105
aI10382
aI10426
aI10914
aI10963
aI11001
aI11321
aI11418
aI11505
aI11569
aI11763
aI11815
aI12279
aI12341
aI12460
aI12513
aI12529
aI12558
aI12766
aI13096
aI13146
aI13239
aI13686
aI13773
aI13802
aI13824
aI14172
aI14181
aI14270
aI14780
aI14783
aI14809
aI15023
aI15376
aI15485
aI15563
aI15655
aI15691
aI15822
aI15888
aI16092
aI16134
aI16283
aI16591
aI16602
aI16844
aI16875
aI16922
aI16978
aI17066
aI17220
aI17311
aI17413
aI17672
aI17870
aI17955
aI18197
aI18257
aI18609
aI18665
aI18791
aI18817
aI19135
aI19147
aI19300
aI19323
aI19328
aI19367
aI19410
aI19422
aI19470
aI19500
aI19714
aI19767
aI19997
aI20148
aI20190
aI20204
aI20578
aI20635
aI20696
aI20718
aI20744
aI20882
aI21030
aI21127
aI21130
aI21137
aI21246
aI21460
aI21596
aI21603
aI21643
aI21659
aI21717
aI21763
aI21800
aI21831
aI21835
aI21864
aI22084
aI22158
aI22177
aI22393
aI22498
aI22598
aI22729
aI22790
aI22823
aI23003
aI23064
aI23096
aI23113
aI23240
aI23265
aI23294
aI23368
aI23410
aI23460
aI23591
aI23650
aI23709
aI23740
aI23780
aI23843
aI24141
aI24253
aI24443
aI24778
aI25000
aI25081
aI25158
aI25368
aI25496
aI25605
aI25810
aI25874
aI26340
aI26452
aa(lp8
I125
aI1294
aI2441
aI4353
aI4925
aI5573
aI5900
aI6448
aI7590
aI7657
aI8220
aI8243
aI8464
aI8804
aI8968
aI9310
aI9347
aI9379
aI9510
aI11048
aI11864
aI12395
aI12441
aI14233
aI14456
aI14878
aI15007
aI15085
aI15575
aI15689
aI15786
aI15792
aI16014
aI16790
aI16821
aI17548
aI17634
aI17928
aI18036
aI18822
aI20375
aI21186
aI21339
aI21341
aI22166
aI22342
aI22411
aI22701
aI22740
aI22761
aI22966
aI24939
aI25027
aI26084
aI26275
aa(lp9
I188
aI237
aI411
aI658
aI706
aI744
aI802
aI853
aI1031
aI1148
aI1508
aI1689
aI1704
aI2124
aI2265
aI2822
aI2896
aI3012
aI3032
aI3260
aI3261
aI3454
aI4223
aI4273
aI4311
aI4804
aI4920
aI4939
aI5938
aI5977
aI6762
aI6868
aI6994
aI7183
aI7199
aI7212
aI7353
aI7717
aI7775
aI7820
aI7889
aI7929
aI8238
aI8312
aI8506
aI8546
aI8712
aI8726
aI9318
aI9378
aI9431
aI9571
aI9784
aI9998
aI10129
aI10151
aI10653
aI11216
aI12246
aI12470
aI12686
aI12766
aI12943
aI12971
aI13188
aI13564
aI13660
aI13863
aI13881
aI13886
aI13904
aI14509
aI14826
aI14859
aI14883
aI14914
aI14964
aI15005
aI15237
aI15307
aI15350
aI15395
aI15507
aI15853
aI16089
aI16666
aI16672
aI16757
aI16873
aI16992
aI16994
aI17060
aI17195
aI17508
aI17914
aI17953
aI18011
aI18268
aI18634
aI18746
aI18897
aI19128
aI19251
aI19553
aI19590
aI19967
aI20074
aI20698
aI21417
aI21527
aI21654
aI21733
aI21922
aI22192
aI22419
aI22617
aI22672
aI23198
aI23720
aI23808
aI24221
aI24297
aI24361
aI24659
aI24666
aI24842
aI24873
aI24922
aI25030
aI25288
aI25321
aI25374
aI25424
aI25612
aI25813
aI26040
aI26106
aI26341
aI26384
aI26472
aa(lp10
I450
aI1464
aI1505
aI1545
aI1828
aI1945
aI2184
aI2223
aI2865
aI2872
aI3419
aI3658
aI3665
aI3819
aI3889
aI4719
aI5607
aI5646
aI5769
aI6052
aI6409
aI6784
aI7002
aI7549
aI7600
aI8360
aI9308
aI10205
aI11513
aI11647
aI12266
aI12404
aI12405
aI13006
aI13234
aI13612
aI13777
aI14086
aI14187
aI14783
aI14786
aI15277
aI15862
aI16673
aI16797
aI16881
aI17443
aI17784
aI17899
aI18218
aI18854
aI19542
aI21067
aI21527
aI24428
aI24538
aI24554
aI24960
aI25055
aI26033
aI26265
aI26319
aI26536
aa(lp11
I463
aI846
aI1556
aI2002
aI2110
aI2456
aI2479
aI2623
aI2701
aI2964
aI3133
aI3213
aI3815
aI3975
aI4401
aI4947
aI5067
aI6262
aI6822
aI8476
aI9036
aI9464
aI12340
aI15638
aI15754
aI16261
aI16765
aI18498
aI18641
aI19209
aI19761
aI20628
aI21242
aI21294
aI21830
aI21930
aI22655
aI22726
aI24031
aI24072
aI24605
aI25885
aI25938
aI26134
aa(lp12
I2
aI76
aI277
aI548
aI667
aI926
aI936
aI1457
aI3821
aI4153
aI4362
aI4580
aI4840
aI4956
aI5045
aI5432
aI6117
aI6764
aI6793
aI7452
aI7751
aI7840
aI8436
aI8672
aI9339
aI9378
aI9455
aI10513
aI11224
aI12111
aI12767
aI13840
aI14693
aI14821
aI15053
aI15268
aI16335
aI16883
aI17229
aI17377
aI17863
aI18568
aI19567
aI19622
aI21213
aI21440
aI22078
aI22079
aI23948
aI24041
aI24914
aI25476
aa(lp13
I589
aI663
aI3085
aI3146
aI3248
aI3530
aI3633
aI3813
aI3989
aI5378
aI5596
aI5889
aI6479
aI7269
aI9514
aI10128
aI10841
aI11820
aI11864
aI13308
aI13549
aI13830
aI14004
aI14133
aI14347
aI14655
aI15237
aI15300
aI15808
aI16082
aI16756
aI18682
aI19088
aI20155
aI20262
aI20492
aI21361
aI21363
aI21407
aI21550
aI21830
aI21841
aI22947
aI23331
aI24353
aI24688
aI24696
aI25539
aI25588
aa(lp14
I677
aI1464
aI1505
aI2184
aI3419
aI3621
aI4719
aI5607
aI5769
aI7002
aI7082
aI7600
aI9308
aI9446
aI12266
aI12404
aI13006
aI13234
aI13612
aI13777
aI14187
aI15862
aI16673
aI16797
aI16881
aI17393
aI17899
aI18854
aI20485
aI21527
aI23798
aI24428
aI24960
aI26033
aI26265
aI26319
aa(lp15
I666
aI1064
aI3498
aI4976
aI7484
aI7959
aI9041
aI9332
aI10471
aI10822
aI11617
aI13021
aI13178
aI13209
aI13466
aI13595
aI13623
aI14237
aI14328
aI15306
aI15529
aI16104
aI17085
aI17853
aI18112
aI18155
aI18391
aI19526
aI19607
aI19742
aI20071
aI20278
aI22034
aI22279
aI22430
aI24139
aI24685
aI25313
aI25761
aI25781
aI25798
aI25890
aI25895
aI25962
aI26179
aa(lp16
I257
aI1046
aI1049
aI1852
aI2482
aI2844
aI3589
aI4647
aI4879
aI4954
aI10391
aI12787
aI12892
aI13903
aI14440
aI17263
aI17281
aI17379
aI17584
aI19042
aI19838
aI20836
aI21408
aI22026
aI23888
aI24581
aI25105
aI25686
aI26205
aa(lp17
I1439
aI1567
aI3563
aI5553
aI6663
aI7381
aI7476
aI7730
aI8244
aI8322
aI8327
aI9167
aI9298
aI9582
aI11999
aI13685
aI14492
aI15091
aI15759
aI16257
aI16491
aI16742
aI18570
aI19596
aI19726
aI20501
aI20733
aI21367
aa(lp18
I84
aI89
aI3445
aI3744
aI4925
aI5096
aI9025
aI10064
aI10074
aI10178
aI10354
aI10965
aI11191
aI11561
aI12000
aI12087
aI13098
aI13099
aI13114
aI13932
aI14850
aI16268
aI16854
aI17712
aI24227
aI24431
aI24452
aa(lp19
I614
aI2805
aI2932
aI4421
aI4523
aI4925
aI4953
aI6108
aI9684
aI9774
aI11647
aI13003
aI16401
aI16656
aI17818
aI18432
aI19152
aI19817
aI22842
aI23003
aI23126
aI23203
aI24418
aI25824
aI25864
aI26287
aI26332
aa(lp20
I316
aI379
aI610
aI1191
aI1790
aI2911
aI3971
aI4622
aI4632
aI4935
aI4947
aI5163
aI5637
aI6951
aI7676
aI7886
aI8101
aI9263
aI10584
aI11912
aI13234
aI14272
aI16618
aI19195
aI22479
aI23361
aa(lp21
I1044
aI1696
aI2466
aI3387
aI3442
aI3525
aI3749
aI3850
aI3969
aI5605
aI5970
aI5980
aI7306
aI8789
aI9579
aI9866
aI10391
aI10510
aI10866
aI12468
aI13097
aI13507
aI15079
aI15427
aI15664
aI17562
aI17781
aI18370
aI18436
aI19010
aI19290
aI19328
aI22530
aI23775
aI24024
aI24056
aa(lp22
I282
aI3867
aI6764
aI7030
aI8354
aI8932
aI10902
aI11596
aI11805
aI12779
aI15229
aI16669
aI16994
aI17905
aI19616
aI21576
aI22224
aI23920
aI24092
aI24255
aI25171
aI25277
aI25490
aI25719
aa(lp23
I4506
aI8160
aI10928
aI11595
aI11883
aI12791
aI13277
aI14456
aI14890
aI15248
aI15466
aI15622
aI15624
aI16334
aI16941
aI17042
aI17106
aI17135
aI17238
aI18492
aI23970
aI26132
aa(lp24
I81
aI3041
aI3848
aI5423
aI7433
aI8610
aI9081
aI10589
aI11504
aI12732
aI13697
aI14474
aI15503
aI15564
aI16319
aI19324
aI21849
aI22300
aI24508
aI25663
aI26405
aI26687
aa(lp25
I1909
aI2085
aI2492
aI2678
aI3086
aI6196
aI6608
aI6902
aI7381
aI7905
aI9104
aI9143
aI10240
aI11268
aI11986
aI13927
aI15134
aI15160
aI15283
aI15874
aI16203
aI16789
aI17394
aI17752
aI19875
aI20841
aI21521
aI24644
aI25355
aa(lp26
I342
aI556
aI575
aI738
aI1337
aI1346
aI2566
aI2835
aI2873
aI3240
aI3629
aI4099
aI4635
aI5025
aI5423
aI5705
aI6535
aI7033
aI7077
aI8858
aI8981
aI9484
aI9644
aI9907
aI10886
aI10931
aI10937
aI11050
aI11321
aI11984
aI12112
aI12189
aI12546
aI12605
aI12830
aI12962
aI13697
aI13743
aI14057
aI14474
aI14524
aI14648
aI14831
aI14950
aI16931
aI17050
aI17209
aI17917
aI18152
aI18680
aI20038
aI21698
aI21849
aI22109
aI22339
aI22582
aI22680
aI23603
aI24414
aI24467
aI24508
aI25384
aI25438
aI25886
aI26021
aI26146
aa(lp27
I1134
aI1302
aI3047
aI3994
aI4007
aI4565
aI5684
aI5809
aI8565
aI8593
aI12000
aI12966
aI13727
aI13769
aI13932
aI16222
aI18990
aI21419
aI22444
aI26602
aa(lp28
I216
aI254
aI4014
aI4883
aI6629
aI7655
aI10226
aI11326
aI13140
aI13631
aI13737
aI16130
aI16455
aI17736
aI18496
aI19186
aI19194
aI24780
aI26251
aa(lp29
I371
aI1548
aI1828
aI2223
aI3665
aI6949
aI10382
aI12597
aI14786
aI16875
aI16978
aI18068
aI18204
aI19367
aI22824
aI23237
aI23240
aa(lp30
I308
aI1017
aI1585
aI2217
aI2281
aI4082
aI5836
aI6005
aI7736
aI7812
aI9310
aI15159
aI15345
aI15959
aI16311
aI17107
aI20406
aI21897
aI23673
aI24587
aa(lp31
I1438
aI1605
aI2358
aI4335
aI5943
aI9534
aI11002
aI11563
aI14404
aI14665
aI15115
aI15133
aI17769
aI19484
aI20501
aI22740
aI26092
aa(lp32
I525
aI826
aI1152
aI1295
aI1721
aI3212
aI6715
aI6730
aI7665
aI7700
aI8336
aI8453
aI9193
aI9269
aI14614
aI15212
aI15226
aI21465
aa(lp33
I272
aI1101
aI2622
aI3278
aI3533
aI5273
aI5427
aI5928
aI8477
aI8725
aI9869
aI9874
aI10412
aI15669
aI18791
aI19093
aI21488
aa(lp34
I1386
aI2126
aI2396
aI3233
aI4393
aI5744
aI6622
aI8959
aI11458
aI14006
aI17742
aI19083
aI21353
aI25615
aa(lp35
I679
aI2631
aI3036
aI6367
aI6392
aI9773
aI10712
aI12971
aI13219
aI15005
aI19029
aI19281
aI19718
aI21246
aI22915
aI23267
aI24078
aI25851
aa(lp36
I1004
aI1950
aI2140
aI3349
aI4020
aI5580
aI10419
aI10964
aI15529
aI17344
aI18616
aI18843
aI19653
aI24618
aI26473
aa(lp37
I3641
aI4540
aI4988
aI5077
aI5770
aI7025
aI9160
aI9579
aI9649
aI10234
aI11494
aI11719
aI13658
aI16709
aI17562
aI20342
aa(lp38
I1011
aI1548
aI3665
aI10328
aI10560
aI11438
aI11564
aI12597
aI16264
aI16327
aI16490
aI16733
aI18068
aI18441
aI19619
aI22613
aI22824
aI23237
aI23240
aI25478
aI26544
aa(lp39
I1991
aI4045
aI4270
aI4864
aI4943
aI7720
aI13101
aI16006
aI16898
aI17692
aI17876
aI17925
aI18558
aI20836
aI22600
aI24890
aI26421
aa(lp40
I153
aI430
aI4562
aI6036
aI8409
aI9951
aI14714
aI17062
aI17152
aI18324
aI20889
aI23095
aI25153
aI26256
aa(lp41
I993
aI2848
aI5898
aI8628
aI9402
aI10357
aI18325
aI19826
aI21849
aI21851
aI23577
aI23964
aI24849
aI25563
aa(lp42
I1713
aI3005
aI5801
aI5900
aI6799
aI7657
aI8190
aI8427
aI8849
aI12395
aI15679
aI17423
aI19575
aa(lp43
I69
aI2582
aI5412
aI5843
aI6714
aI8817
aI10168
aI10292
aI12422
aI15464
aI24485
aI26602
aa(lp44
I254
aI1915
aI3346
aI4757
aI5684
aI5738
aI9498
aI11143
aI11522
aI17451
aI19951
aI21294
aa(lp45
I1122
aI3388
aI5362
aI9175
aI9881
aI11910
aI12119
aI13892
aI18709
aI18936
aI19499
aI20479
aI22782
aI23683
aa(lp46
I5486
aI7665
aI10240
aI10856
aI15160
aI16789
aI20817
aI24090
aI24912
aI25083
aI26273
aa(lp47
I1046
aI6127
aI7170
aI8149
aI8814
aI11692
aI19089
aI19368
aI19479
aI21063
aI22279
aI26602
aa(lp48
I1223
aI1644
aI2002
aI2927
aI4925
aI6465
aI9294
aI10195
aI10266
aI10905
aI11558
aI11881
aI15278
aI17351
aI17634
aI20653
aI20841
aI21088
aI21927
aI22026
aI25450
aa(lp49
I2060
aI8266
aI10780
aI17857
aI20197
aI23120
aI23241
aI23251
aI23269
aI23956
aI25398
aI26216
aa(lp50
I2229
aI5338
aI8157
aI11573
aI13893
aI14886
aI15551
aI18056
aI18466
aI22975
aI26366
aa(lp51
I414
aI3416
aI7584
aI8696
aI12066
aI16271
aI21808
aI21931
aI26409
aa.