(lp0
c__builtin__
set
p1
((lp2
S'kingdom'
p3
aS'king'
p4
aS'horse'
p5
aS'land'
p6
aS'magic'
p7
aS'knight'
p8
aS'town'
p9
aS'royal'
p10
aS'cloak'
p11
aS'tree'
p12
aS'dragon'
p13
aS'throne'
p14
aS'scale'
p15
aS'forest'
p16
aS'sword'
p17
aS'village'
p18
aS'castle'
p19
aS'wing'
p20
aS'prince'
p21
aS'wood'
p22
aS'creature'
p23
atp24
Rp25
ag1
((lp26
S'coffee'
p27
aS'cup'
p28
aS'laptop'
p29
aS'study'
p30
aS'major'
p31
aS'grade'
p32
aS'studying'
p33
aS'professor'
p34
aS'drink'
p35
aS'dude'
p36
aS'semester'
p37
aS'library'
p38
aS'campus'
p39
aS'roommate'
p40
aS'college'
p41
aS'party'
p42
aS'date'
p43
aS'music'
p44
aS'jean'
p45
aS'text'
p46
aS'university'
p47
atp48
Rp49
ag1
((lp50
S'often'
p51
aS'fate'
p52
aS'met'
p53
aS'destined'
p54
aS'universe'
p55
aS'age'
p56
aS'sometimes'
p57
aS'soulmates'
p58
aS'soul'
p59
aS'mark'
p60
aS'ignore'
p61
aS'born'
p62
aS'written'
p63
aS'connection'
p64
aS'wrist'
p65
aS'wondering'
p66
aS'finding'
p67
aS'meet'
p68
aS'soulmate'
p69
aS'meeting'
p70
aS'bond'
p71
atp72
Rp73
ag1
((lp74
S'customer'
p75
aS'shop'
p76
aS'coffee'
p77
aS'drink'
p78
aS'barista'
p79
aS'apron'
p80
aS'cup'
p81
aS'counter'
p82
aS'espresso'
p83
aS'caffeine'
p84
aS'baristas'
p85
aS'latte'
p86
aS'coworker'
p87
aS'regular'
p88
aS'college'
p89
aS'menu'
p90
aS'employee'
p91
aS'sip'
p92
aS'cafe'
p93
aS'order'
p94
aS'register'
p95
atp96
Rp97
ag1
((lp98
S'customer'
p99
aS'shop'
p100
aS'plant'
p101
aS'flower'
p102
aS'daisy'
p103
aS'rose'
p104
aS'bell'
p105
aS'apron'
p106
aS'bouquet'
p107
aS'petal'
p108
aS'counter'
p109
aS'stem'
p110
aS'tulip'
p111
aS'arrangement'
p112
aS'carnation'
p113
aS'bloom'
p114
aS'florist'
p115
aS'vase'
p116
aS'lily'
p117
aS'store'
p118
aS'register'
p119
atp120
Rp121
ag1
((lp122
S'league'
p123
aS'kurogiri'
p124
aS'police'
p125
aS'abandoned'
p126
aS'civilian'
p127
aS'tomura'
p128
aS'mask'
p129
aS'mission'
p130
aS'alley'
p131
aS'killing'
p132
aS'shigaraki'
p133
aS'information'
p134
aS'villain'
p135
aS'street'
p136
aS'glove'
p137
aS'alleyway'
p138
aS'bar'
p139
aS'quirkless'
p140
aS'killed'
p141
aS'knife'
p142
aS'useless'
p143
atp144
Rp145
ag1
((lp146
S'undead'
p147
aS'monster'
p148
aS'fang'
p149
aS'werewolf'
p150
aS'flesh'
p151
aS'tree'
p152
aS'hunt'
p153
aS'hunter'
p154
aS'vampire'
p155
aS'alive'
p156
aS'moon'
p157
aS'zombie'
p158
aS'road'
p159
aS'wood'
p160
aS'supernatural'
p161
aS'wolf'
p162
aS'human'
p163
aS'path'
p164
aS'hunting'
p165
aS'pack'
p166
aS'creature'
p167
atp168
Rp169
ag1
((lp170
S'concert'
p171
aS'singer'
p172
aS'musician'
p173
aS'drum'
p174
aS'bass'
p175
aS'instrument'
p176
aS'performance'
p177
aS'singing'
p178
aS'guitarist'
p179
aS'venue'
p180
aS'drumstick'
p181
aS'guitar'
p182
aS'band'
p183
aS'drummer'
p184
aS'music'
p185
aS'sing'
p186
aS'bassist'
p187
aS'lyric'
p188
aS'song'
p189
aS'backstage'
p190
aS'stage'
p191
atp192
Rp193
ag1
((lp194
S'thrown'
p195
aS'hug'
p196
aS'playground'
p197
aS'parent'
p198
aS'anymore'
p199
aS'mother'
p200
aS'father'
p201
aS'age'
p202
aS'memory'
p203
aS'bruise'
p204
aS'tiny'
p205
aS'blame'
p206
aS'sibling'
p207
aS'upon'
p208
aS'special'
p209
aS'house'
p210
aS'growing'
p211
aS'cool'
p212
aS'forth'
p213
aS'tighter'
p214
aS'curled'
p215
atp216
Rp217
ag1
((lp218
S'golden'
p219
aS'heaven'
p220
aS'realm'
p221
aS'summoned'
p222
aS'angel'
p223
aS'summoning'
p224
aS'demon'
p225
aS'soul'
p226
aS'ithe'
p227
aS'horn'
p228
aS'nail'
p229
aS'pulsing'
p230
aS'tail'
p231
aS'human'
p232
aS'earth'
p233
aS'dripping'
p234
aS'claw'
p235
aS'feather'
p236
aS'wing'
p237
aS'bound'
p238
aS'creature'
p239
atp240
Rp241
ag1
((lp242
S'beautiful'
p243
aS'battlefield'
p244
aS'infant'
p245
aS'sob'
p246
aS'raise'
p247
aS'dying'
p248
aS'trail'
p249
aS'reincarnation'
p250
aS'painting'
p251
aS'nightmare'
p252
aS'rise'
p253
aS'rubble'
p254
aS'confident'
p255
aS'reincarnated'
p256
aS'curse'
p257
aS'memory'
p258
aS'existence'
p259
aS'joy'
p260
aS'dream'
p261
aS'war'
p262
aS'ponytail'
p263
atp264
Rp265
ag1
((lp266
S'younger'
p267
aS'ash'
p268
aS'resemblance'
p269
aS'version'
p270
aS'unconscious'
p271
aS'civilian'
p272
aS'distinct'
p273
aS'timeline'
p274
aS'symbol'
p275
aS'defeat'
p276
aS'deny'
p277
aS'concrete'
p278
aS'future'
p279
aS'determination'
p280
aS'costume'
p281
aS'measure'
p282
aS'ache'
p283
aS'useless'
p284
aS'vague'
p285
aS'decade'
p286
aS'successor'
p287
atp288
Rp289
ag1
((lp290
S'breathe'
p291
aS'toilet'
p292
aS'flower'
p293
aS'choking'
p294
aS'cough'
p295
aS'petal'
p296
aS'coughing'
p297
aS'disease'
p298
aS'bloom'
p299
aS'suffocate'
p300
aS'dying'
p301
aS'cure'
p302
aS'lung'
p303
aS'suffer'
p304
aS'hacking'
p305
aS'die'
p306
aS'surgery'
p307
aS'hanahaki'
p308
aS'illness'
p309
aS'unrequited'
p310
aS'coughed'
p311
atp312
Rp313
ag1
((lp314
S'golden'
p315
aS'heaven'
p316
aS'angelic'
p317
aS'specie'
p318
aS'angel'
p319
aS'pure'
p320
aS'gold'
p321
aS'guardian'
p322
aS'demon'
p323
aS'soul'
p324
aS'horn'
p325
aS'freckle'
p326
aS'seraph'
p327
aS'human'
p328
aS'peaceful'
p329
aS'grasp'
p330
aS'earth'
p331
aS'feather'
p332
aS'pale'
p333
aS'wing'
p334
aS'creature'
p335
atp336
Rp337
ag1
((lp338
S'gryffindors'
p339
aS'spell'
p340
aS'gryffindor'
p341
aS'slytherins'
p342
aS'quidditch'
p343
aS'wizarding'
p344
aS'wand'
p345
aS'hufflepuffs'
p346
aS'herbology'
p347
aS'wizard'
p348
aS'muggle'
p349
aS'transfiguration'
p350
aS'squib'
p351
aS'hogwarts'
p352
aS'cauldron'
p353
aS'slytherin'
p354
aS'robe'
p355
aS'hufflepuff'
p356
aS'potion'
p357
aS'professor'
p358
aS'ravenclaw'
p359
atp360
Rp361
ag1
((lp362
S'tattooing'
p363
aS'tattoo'
p364
aS'sketch'
p365
aS'flower'
p366
aS'shop'
p367
aS'artist'
p368
aS'bouquet'
p369
aS'inked'
p370
aS'needle'
p371
aS'stool'
p372
aS'inking'
p373
aS'customer'
p374
aS'parlor'
p375
aS'client'
p376
aS'stencil'
p377
aS'piercings'
p378
aS'carnation'
p379
aS'ink'
p380
aS'sketchbook'
p381
aS'tattooed'
p382
aS'design'
p383
atp384
Rp385
ag1
((lp386
S'performing'
p387
aS'singer'
p388
aS'chord'
p389
aS'perform'
p390
aS'performance'
p391
aS'song'
p392
aS'sang'
p393
aS'musician'
p394
aS'audience'
p395
aS'lyric'
p396
aS'guitar'
p397
aS'instrument'
p398
aS'melody'
p399
aS'music'
p400
aS'violin'
p401
aS'sing'
p402
aS'piano'
p403
aS'artist'
p404
aS'singing'
p405
aS'musical'
p406
aS'stage'
p407
atp408
Rp409
ag1
((lp410
S'spotted'
p411
aS'wood'
p412
aS'destroyed'
p413
aS'city'
p414
aS'country'
p415
aS'age'
p416
aS'official'
p417
aS'tree'
p418
aS'system'
p419
aS'glove'
p420
aS'basic'
p421
aS'society'
p422
aS'street'
p423
aS'pile'
p424
aS'gray'
p425
aS'illegal'
p426
aS'punching'
p427
aS'rid'
p428
aS'law'
p429
aS'injured'
p430
aS'war'
p431
atp432
Rp433
ag1
((lp434
S'apartment'
p435
aS'coffee'
p436
aS'sip'
p437
aS'wake'
p438
aS'gay'
p439
aS'restaurant'
p440
aS'tv'
p441
aS'university'
p442
aS'fridge'
p443
aS'saturday'
p444
aS'roommate'
p445
aS'pillow'
p446
aS'music'
p447
aS'rent'
p448
aS'swear'
p449
aS'reply'
p450
aS'jean'
p451
aS'chocolate'
p452
aS'sprawled'
p453
aS'blanket'
p454
aS'kitchen'
p455
atp456
Rp457
ag1
((lp458
S'throne'
p459
aS'golden'
p460
aS'goddess'
p461
aS'poseidon'
p462
aS'underworld'
p463
aS'gold'
p464
aS'ruler'
p465
aS'demeter'
p466
aS'godsi'
p467
aS'nymph'
p468
aS'zeus'
p469
aS'hades'
p470
aS'bow'
p471
aS'ambrosia'
p472
aS'chariot'
p473
aS'demigod'
p474
aS'olympus'
p475
aS'mortal'
p476
aS'river'
p477
aS'grace'
p478
aS'sunlight'
p479
atp480
Rp481
ag1
((lp482
S'detective'
p483
aS'cop'
p484
aS'captain'
p485
aS'police'
p486
aS'jacket'
p487
aS'office'
p488
aS'gun'
p489
aS'station'
p490
aS'drive'
p491
aS'crime'
p492
aS'computer'
p493
aS'investigation'
p494
aS'suspect'
p495
aS'officer'
p496
aS'file'
p497
aS'report'
p498
aS'partner'
p499
aS'precinct'
p500
aS'evidence'
p501
aS'badge'
p502
aS'dirty'
p503
atp504
Rp505
ag1
((lp506
S'trainer'
p507
aS'evolution'
p508
aS'potion'
p509
aS'pokeball'
p510
aS'center'
p511
aS'battling'
p512
aS'badge'
p513
aS'pokemons'
p514
aS'paw'
p515
aS'pokmons'
p516
aS'pokmon'
p517
aS'journey'
p518
aS'espeon'
p519
aS'riolu'
p520
aS'gengar'
p521
aS'eevee'
p522
aS'pidgey'
p523
aS'fur'
p524
aS'pokemon'
p525
aS'pokeballs'
p526
aS'berry'
p527
atp528
Rp529
ag1
((lp530
S'fly'
p531
aS'respond'
p532
aS'accepting'
p533
aS'flight'
p534
aS'toshinoris'
p535
aS'patented'
p536
aS'flapped'
p537
aS'speed'
p538
aS'ridiculousshoto'
p539
aS'soulmates'
p540
aS'preen'
p541
aS'wingless'
p542
aS'mate'
p543
aS'mentor'
p544
aS'soulmate'
p545
aS'alex'
p546
aS'feather'
p547
aS'abruptly'
p548
aS'toshinori'
p549
aS'wing'
p550
aS'flightless'
p551
atp552
Rp553
ag1
((lp554
S'rope'
p555
aS'plank'
p556
aS'deck'
p557
aS'cannon'
p558
aS'sail'
p559
aS'docked'
p560
aS'island'
p561
aS'crew'
p562
aS'port'
p563
aS'dock'
p564
aS'shore'
p565
aS'mast'
p566
aS'aboard'
p567
aS'sea'
p568
aS'ocean'
p569
aS'starboard'
p570
aS'ship'
p571
aS'captain'
p572
aS'pirate'
p573
aS'boat'
p574
aS'board'
p575
atp576
Rp577
ag1
((lp578
S'ballet'
p579
aS'choreography'
p580
aS'music'
p581
aS'danced'
p582
aS'pirouette'
p583
aS'dancing'
p584
aS'dance'
p585
aS'practice'
p586
aS'song'
p587
aS'audience'
p588
aS'talent'
p589
aS'audition'
p590
aS'hiphop'
p591
aS'dancer'
p592
aS'studio'
p593
aS'routine'
p594
aS'performance'
p595
aS'practicing'
p596
aS'style'
p597
aS'sensual'
p598
aS'stage'
p599
atp600
Rp601
ag1
((lp602
S'swim'
p603
aS'underwater'
p604
aS'scale'
p605
aS'gill'
p606
aS'swam'
p607
aS'fish'
p608
aS'seaweed'
p609
aS'sand'
p610
aS'ocean'
p611
aS'fisherman'
p612
aS'shore'
p613
aS'tail'
p614
aS'mermaid'
p615
aS'sea'
p616
aS'mer'
p617
aS'webbed'
p618
aS'boat'
p619
aS'fin'
p620
aS'coral'
p621
aS'merman'
p622
aS'swimming'
p623
atp624
Rp625
ag1
((lp626
S'sector'
p627
aS'repair'
p628
aS'wire'
p629
aS'patient'
p630
aS'specie'
p631
aS'government'
p632
aS'receive'
p633
aS'within'
p634
aS'programmed'
p635
aS'system'
p636
aS'lab'
p637
aS'headquarters'
p638
aS'planet'
p639
aS'machine'
p640
aS'scientist'
p641
aS'test'
p642
aS'earth'
p643
aS'crew'
p644
aS'technology'
p645
aS'heel'
p646
aS'pilot'
p647
atp648
Rp649
ag1
((lp650
S'trained'
p651
aS'criminal'
p652
aS'illegal'
p653
aS'target'
p654
aS'bullet'
p655
aS'goon'
p656
aS'weapon'
p657
aS'men'
p658
aS'headquarters'
p659
aS'agent'
p660
aS'mission'
p661
aS'access'
p662
aS'flicking'
p663
aS'code'
p664
aS'tech'
p665
aS'gun'
p666
aS'bos'
p667
aS'knocked'
p668
aS'killing'
p669
aS'surveillance'
p670
aS'operation'
p671
atp672
Rp673
ag1
((lp674
S'flashlight'
p675
aS'ghost'
p676
aS'ripped'
p677
aS'emf'
p678
aS'abandoned'
p679
aS'summoning'
p680
aS'elsethe'
p681
aS'demon'
p682
aS'footstep'
p683
aS'faint'
p684
aS'hunter'
p685
aS'paranormal'
p686
aS'entity'
p687
aS'goggles'
p688
aS'haunted'
p689
aS'ash'
p690
aS'spirit'
p691
aS'evp'
p692
aS'creature'
p693
aS'slotshe'
p694
aS'darker'
p695
atp696
Rp697
ag1
((lp698
S'jean'
p699
aS'stripping'
p700
aS'ab'
p701
aS'arched'
p702
aS'dancing'
p703
aS'club'
p704
aS'bill'
p705
aS'neon'
p706
aS'audience'
p707
aS'grinding'
p708
aS'bouncer'
p709
aS'dance'
p710
aS'pole'
p711
aS'dancer'
p712
aS'music'
p713
aS'platform'
p714
aS'strip'
p715
aS'sweaty'
p716
aS'stage'
p717
aS'sultry'
p718
aS'stripper'
p719
atp720
Rp721
ag1
((lp722
S'fan'
p723
aS'album'
p724
aS'perform'
p725
aS'backstage'
p726
aS'concert'
p727
aS'producer'
p728
aS'song'
p729
aS'sang'
p730
aS'debut'
p731
aS'studio'
p732
aS'debuted'
p733
aS'music'
p734
aS'audience'
p735
aS'lyric'
p736
aS'dance'
p737
aS'sing'
p738
aS'performance'
p739
aS'debuting'
p740
aS'singing'
p741
aS'idol'
p742
aS'stage'
p743
atp744
Rp745
ag1
((lp746
S'boxing'
p747
aS'olympic'
p748
aS'coach'
p749
aS'teammate'
p750
aS'track'
p751
aS'season'
p752
aS'athlete'
p753
aS'practice'
p754
aS'football'
p755
aS'bench'
p756
aS'player'
p757
aS'coaching'
p758
aS'strategy'
p759
aS'baseball'
p760
aS'competition'
p761
aS'team'
p762
aS'winning'
p763
aS'skill'
p764
aS'sport'
p765
aS'win'
p766
aS'net'
p767
atp768
Rp769
ag1
((lp770
S'imperial'
p771
aS'wood'
p772
aS'quarter'
p773
aS'winter'
p774
aS'tatami'
p775
aS'among'
p776
aS'servant'
p777
aS'lacquered'
p778
aS'inkstone'
p779
aS'hakama'
p780
aS'commoner'
p781
aS'bow'
p782
aS'courtyard'
p783
aS'samurai'
p784
aS'carriage'
p785
aS'royalty'
p786
aS'jnihitoe'
p787
aS'kitsune'
p788
aS'lord'
p789
aS'emperor'
p790
aS'wooden'
p791
atp792
Rp793
ag1
((lp794
S'siren'
p795
aS'police'
p796
aS'darkness'
p797
aS'regretting'
p798
aS'illegal'
p799
aS'exposed'
p800
aS'arrested'
p801
aS'vigilantism'
p802
aS'crime'
p803
aS'occasional'
p804
aS'whispering'
p805
aS'incident'
p806
aS'street'
p807
aS'alley'
p808
aS'softened'
p809
aS'collect'
p810
aS'alleyway'
p811
aS'society'
p812
aS'vigilante'
p813
aS'encounter'
p814
aS'outwards'
p815
atp816
Rp817
ag1
((lp818
S'hometown'
p819
aS'welcoming'
p820
aS'cereal'
p821
aS'kart'
p822
aS'sugar'
p823
aS'brand'
p824
aS'cheap'
p825
aS'jogging'
p826
aS'owner'
p827
aS'tooth'
p828
aS'neighbour'
p829
aS'yawn'
p830
aS'bang'
p831
aS'slam'
p832
aS'driveway'
p833
aS'neighbor'
p834
aS'routine'
p835
aS'suspiciously'
p836
aS'laterthe'
p837
aS'pajama'
p838
aS'furniture'
p839
atp840
Rp841
ag1
((lp842
S'northern'
p843
aS'tribe'
p844
aS'nonbender'
p845
aS'airbender'
p846
aS'firebender'
p847
aS'waterbenders'
p848
aS'firebend'
p849
aS'bending'
p850
aS'earthbending'
p851
aS'waterbending'
p852
aS'nomad'
p853
aS'avatar'
p854
aS'bender'
p855
aS'earthbender'
p856
aS'firebending'
p857
aS'airbending'
p858
aS'waterbender'
p859
aS'nation'
p860
aS'firebenders'
p861
aS'airbenders'
p862
aS'element'
p863
atp864
Rp865
ag1
((lp866
S'tattoo'
p867
aS'bodyguard'
p868
aS'yakuza'
p869
aS'polished'
p870
aS'cushion'
p871
aS'muzzle'
p872
aS'blade'
p873
aS'gun'
p874
aS'hitting'
p875
aS'scar'
p876
aS'slam'
p877
aS'rage'
p878
aS'city'
p879
aS'eerily'
p880
aS'oyabun'
p881
aS'bos'
p882
aS'subordinate'
p883
aS'aligned'
p884
aS'tattooed'
p885
aS'leader'
p886
aS'knife'
p887
atp888
Rp889
ag1
((lp890
S'ghost'
p891
aS'flashlight'
p892
aS'emf'
p893
aS'abandoned'
p894
aS'summoning'
p895
aS'location'
p896
aS'faint'
p897
aS'hunter'
p898
aS'paranormal'
p899
aS'floating'
p900
aS'splinter'
p901
aS'haunting'
p902
aS'glowing'
p903
aS'eerily'
p904
aS'fade'
p905
aS'ghostly'
p906
aS'dust'
p907
aS'shadow'
p908
aS'spirit'
p909
aS'died'
p910
aS'furniture'
p911
atp912
Rp913
ag1
((lp914
S'spaceagain'
p915
aS'sumhe'
p916
aS'whispersprying'
p917
aS'feathery'
p918
aS'thiaccidentally'
p919
aS'money'
p920
aS'stockhis'
p921
aS'bos'
p922
aS'wrongbbut'
p923
aS'drug'
p924
aS'violentlywhatever'
p925
aS'cobblestone'
p926
aS'soldizuku'
p927
aS'templehissing'
p928
aS'streetsnighttime'
p929
aS'gang'
p930
aS'whimpersfeeling'
p931
aS'lock'
p932
aS'suspenderskatsuki'
p933
aS'mafia'
p934
aS'leader'
p935
atp936
Rp937
ag1
((lp938
S'bowed'
p939
aS'married'
p940
aS'wife'
p941
aS'maid'
p942
aS'marrying'
p943
aS'marry'
p944
aS'engagement'
p945
aS'engaged'
p946
aS'bride'
p947
aS'husbandtobe'
p948
aS'wouldntit'
p949
aS'marriage'
p950
aS'choose'
p951
aS'wedding'
p952
aS'wasmomo'
p953
aS'sideconcentrate'
p954
aS'tobemarried'
p955
aS'dress'
p956
aS'hermomo'
p957
aS'husband'
p958
aS'spousetobe'
p959
atp960
Rp961
ag1
((lp962
S'hacker'
p963
aS'reveal'
p964
aS'sunshine'
p965
aS'politician'
p966
aS'file'
p967
aS'finethen'
p968
aS'slashed'
p969
aS'victor'
p970
aS'gun'
p971
aS'newest'
p972
aS'bodyhe'
p973
aS'loudlythe'
p974
aS'mindhe'
p975
aS'including'
p976
aS'amusing'
p977
aS'allergen'
p978
aS'target'
p979
aS'guild'
p980
aS'assassin'
p981
aS'popping'
p982
aS'reflection'
p983
atp984
Rp985
ag1
((lp986
S'customer'
p987
aS'counter'
p988
aS'drink'
p989
aS'bar'
p990
aS'alcohol'
p991
aS'cocktail'
p992
aS'ordering'
p993
aS'barstool'
p994
aS'sipping'
p995
aS'flirting'
p996
aS'stool'
p997
aS'creative'
p998
aS'flirt'
p999
aS'waiter'
p1000
aS'beer'
p1001
aS'drinkthe'
p1002
aS'booth'
p1003
aS'bartender'
p1004
aS'dragging'
p1005
aS'order'
p1006
aS'concert'
p1007
atp1008
Rp1009
ag1
((lp1010
S'shoot'
p1011
aS'cop'
p1012
aS'kageyamas'
p1013
aS'superhero'
p1014
aS'extend'
p1015
aS'emergency'
p1016
aS'causedwhat'
p1017
aS'leather'
p1018
aS'developed'
p1019
aS'bordered'
p1020
aS'prior'
p1021
aS'rift'
p1022
aS'crumbled'
p1023
aS'recoiled'
p1024
aS'blur'
p1025
aS'operated'
p1026
aS'earth'
p1027
aS'brick'
p1028
aS'swung'
p1029
aS'hood'
p1030
aS'identity'
p1031
atp1032
Rp1033
ag1
((lp1034
S'withwar'
p1035
aS'wellkaminari'
p1036
aS'windpipelike'
p1037
aS'platoon'
p1038
aS'lieutenant'
p1039
aS'saluting'
p1040
aS'colonel'
p1041
aS'barrack'
p1042
aS'yefimovna'
p1043
aS'porous'
p1044
aS'womanskirishima'
p1045
aS'womanmoreau'
p1046
aS'soldier'
p1047
aS'reported'
p1048
aS'bunk'
p1049
aS'troop'
p1050
aS'commanding'
p1051
aS'military'
p1052
aS'wouldveyoure'
p1053
aS'statementno'
p1054
aS'sergeant'
p1055
atp1056
Rp1057
ag1
((lp1058
S'summer'
p1059
aS'cocounselors'
p1060
aS'cocounselor'
p1061
aS'marshmallow'
p1062
aS'canoe'
p1063
aS'sock'
p1064
aS'bunk'
p1065
aS'camp'
p1066
aS'camper'
p1067
aS'lake'
p1068
aS'bedhe'
p1069
aS'campfire'
p1070
aS'herewhat'
p1071
aS'icebreaker'
p1072
aS'sleepaway'
p1073
aS'activity'
p1074
aS'campground'
p1075
aS'ballswhy'
p1076
aS'senior'
p1077
aS'counselor'
p1078
aS'cabin'
p1079
atp1080
Rp1081
ag1
((lp1082
S'leotard'
p1083
aS'ballerina'
p1084
aS'ballet'
p1085
aS'rehearsal'
p1086
aS'pointe'
p1087
aS'dancing'
p1088
aS'dance'
p1089
aS'tights'
p1090
aS'paceim'
p1091
aS'barre'
p1092
aS'arch'
p1093
aS'graceful'
p1094
aS'audition'
p1095
aS'dancer'
p1096
aS'studio'
p1097
aS'shoe'
p1098
aS'odette'
p1099
aS'performance'
p1100
aS'ochako'
p1101
aS'tutu'
p1102
aS'stage'
p1103
atp1104
Rp1105
ag1
((lp1106
S'colleague'
p1107
aS'coffeeizuku'
p1108
aS'umbusyhis'
p1109
aS'yodellerkatsuki'
p1110
aS'upguitar'
p1111
aS'wearilyis'
p1112
aS'frownedno'
p1113
aS'tenseddekukacchan'
p1114
aS'ssoizuku'
p1115
aS'bounce'
p1116
aS'ion'
p1117
aS'termsrelax'
p1118
aS'somethingkatsuki'
p1119
aS'chemist'
p1120
aS'studentsbbutizuku'
p1121
aS'forwardoh'
p1122
aS'biologist'
p1123
aS'weeedont'
p1124
aS'106'
p1125
aS'bestim'
p1126
aS'105'
p1127
atp1128
Rp1129
ag1
((lp1130
S'shop'
p1131
aS'sketchbook'
p1132
aS'canvas'
p1133
aS'art'
p1134
aS'talented'
p1135
aS'restaurant'
p1136
aS'artist'
p1137
aS'register'
p1138
aS'character'
p1139
aS'sketch'
p1140
aS'wallet'
p1141
aS'paint'
p1142
aS'written'
p1143
aS'wonderful'
p1144
aS'studio'
p1145
aS'published'
p1146
aS'schoolkaminari'
p1147
aS'drinking'
p1148
aS'painting'
p1149
aS'sculpting'
p1150
aS'con'
p1151
atp1152
Rp1153
ag1
((lp1154
S'customer'
p1155
aS'apron'
p1156
aS'counter'
p1157
aS'baking'
p1158
aS'icing'
p1159
aS'register'
p1160
aS'ingredient'
p1161
aS'flour'
p1162
aS'baker'
p1163
aS'napkin'
p1164
aS'recipe'
p1165
aS'cupcake'
p1166
aS'bakery'
p1167
aS'treat'
p1168
aS'doodle'
p1169
aS'cake'
p1170
aS'shoutotoru'
p1171
aS'sugar'
p1172
aS'baked'
p1173
aS'display'
p1174
aS'cheerfully'
p1175
atp1176
Rp1177
ag1
((lp1178
S'ringmaster'
p1179
aS'performer'
p1180
aS'spectacular'
p1181
aS'artist'
p1182
aS'perform'
p1183
aS'trapeze'
p1184
aS'circus'
p1185
aS'goer'
p1186
aS'clown'
p1187
aS'acrobat'
p1188
aS'circusthe'
p1189
aS'audience'
p1190
aS'tentmomo'
p1191
aS'backstage'
p1192
aS'splendor'
p1193
aS'tamer'
p1194
aS'performance'
p1195
aS'curtain'
p1196
aS'stage'
p1197
aS'strongman'
p1198
aS'tent'
p1199
atp1200
Rp1201
ag1
((lp1202
S'cockpit'
p1203
aS'cadet'
p1204
aS'kaiju'
p1205
aS'onezero'
p1206
aS'candidate'
p1207
aS'neural'
p1208
aS'drift'
p1209
aS'shatterdome'
p1210
aS'simulator'
p1211
aS'jaeger'
p1212
aS'ppdc'
p1213
aS'compatible'
p1214
aS'ranger'
p1215
aS'kaijus'
p1216
aS'kwoon'
p1217
aS'copilot'
p1218
aS'shatterdomes'
p1219
aS'kscience'
p1220
aS'compatibility'
p1221
aS'piloting'
p1222
aS'pilot'
p1223
atp1224
Rp1225
a.